ARM GAS  /tmp/cc3Asyhh.s 			page 1


   1              		.syntax unified
   2              		.cpu cortex-m4
   3              		.fpu softvfp
   4              		.eabi_attribute 20, 1
   5              		.eabi_attribute 21, 1
   6              		.eabi_attribute 23, 3
   7              		.eabi_attribute 24, 1
   8              		.eabi_attribute 25, 1
   9              		.eabi_attribute 26, 1
  10              		.eabi_attribute 30, 2
  11              		.eabi_attribute 34, 1
  12              		.eabi_attribute 18, 4
  13              		.thumb
  14              		.file	"main.c"
  15              		.text
  16              	.Ltext0:
  17              		.cfi_sections	.debug_frame
  18              		.section	.text.startup.main,"ax",%progbits
  19              		.align	2
  20              		.p2align 4,,15
  21              		.global	main
  22              		.thumb
  23              		.thumb_func
  24              		.type	main, %function
  25              	main:
  26              	.LFB118:
  27              		.file 1 "main.c"
  28              		.loc 1 24 0
  29              		.cfi_startproc
  30              		@ args = 0, pretend = 0, frame = 0
  31              		@ frame_needed = 0, uses_anonymous_args = 0
  32 0000 08B5     		push	{r3, lr}
  33              	.LCFI0:
  34              		.cfi_def_cfa_offset 8
  35              		.cfi_offset 3, -8
  36              		.cfi_offset 14, -4
  37              		.loc 1 33 0
  38 0002 FFF7FEFF 		bl	halInit
  39              	.LVL0:
  40              		.loc 1 34 0
  41 0006 FFF7FEFF 		bl	chSysInit
  42              	.LVL1:
  43              		.loc 1 40 0
  44 000a FFF7FEFF 		bl	myUSBinit
  45              	.LVL2:
  46 000e 03E0     		b	.L3
  47              	.L2:
  48              		.loc 1 59 0
  49 0010 4FF47A70 		mov	r0, #1000
  50 0014 FFF7FEFF 		bl	chThdSleep
  51              	.LVL3:
  52              	.L3:
  53              		.loc 1 52 0
  54 0018 FFF7FEFF 		bl	isUsbActive
  55              	.LVL4:
  56 001c 0028     		cmp	r0, #0
  57 001e F7D0     		beq	.L2
ARM GAS  /tmp/cc3Asyhh.s 			page 2


  58              		.loc 1 56 0
  59 0020 0148     		ldr	r0, .L8
  60 0022 FFF7FEFF 		bl	send_data
  61              	.LVL5:
  62 0026 F3E7     		b	.L2
  63              	.L9:
  64              		.align	2
  65              	.L8:
  66 0028 00000000 		.word	.LANCHOR0
  67              		.cfi_endproc
  68              	.LFE118:
  69              		.size	main, .-main
  70 002c AFF30080 		.section	.data.j.8599,"aw",%progbits
  71              		.align	2
  72              		.set	.LANCHOR0,. + 0
  73              		.type	j.8599, %object
  74              		.size	j.8599, 17
  75              	j.8599:
  76 0000 30313233 		.ascii	"0123456789abcdef\000"
  76      34353637 
  76      38396162 
  76      63646566 
  76      00
  77 0011 000000   		.text
  78              	.Letext0:
  79              		.file 2 "/opt/gcc-arm-none-eabi-4_7-2013q1/bin/../lib/gcc/arm-none-eabi/4.7.3/include/stddef.h"
  80              		.file 3 "/opt/gcc-arm-none-eabi-4_7-2013q1/bin/../lib/gcc/arm-none-eabi/4.7.3/../../../../arm-none
  81              		.file 4 "/home/gokul/ChibiOS_2.5.0/os/ports/GCC/ARMCMx/chtypes.h"
  82              		.file 5 "/home/gokul/ChibiOS_2.5.0/os/kernel/include/chlists.h"
  83              		.file 6 "/home/gokul/ChibiOS_2.5.0/os/kernel/include/chthreads.h"
  84              		.file 7 "/home/gokul/ChibiOS_2.5.0/os/ports/GCC/ARMCMx/chcore_v7m.h"
  85              		.file 8 "/home/gokul/ChibiOS_2.5.0/os/kernel/include/chmtx.h"
  86              		.file 9 "/home/gokul/ChibiOS_2.5.0/os/kernel/include/chevents.h"
  87              		.file 10 "/home/gokul/ChibiOS_2.5.0/os/kernel/include/chqueues.h"
  88              		.file 11 "/home/gokul/ChibiOS_2.5.0/os/kernel/include/chstreams.h"
  89              		.file 12 "/home/gokul/ChibiOS_2.5.0/os/hal/include/io_channel.h"
  90              		.file 13 "/home/gokul/ChibiOS_2.5.0/os/hal/include/usb.h"
  91              		.file 14 "/home/gokul/ChibiOS_2.5.0/os/hal/platforms/STM32/OTGv1/usb_lld.h"
  92              		.file 15 "/home/gokul/ChibiOS_2.5.0/os/hal/platforms/STM32/OTGv1/stm32_otg.h"
  93              		.file 16 "/home/gokul/ChibiOS_2.5.0/os/hal/include/serial_usb.h"
  94              		.file 17 "/home/gokul/ChibiOS_2.5.0/os/ports/common/ARMCMx/CMSIS/include/core_cm4.h"
  95              		.file 18 "USB.h"
  96              		.file 19 "/home/gokul/ChibiOS_2.5.0/os/hal/include/hal.h"
  97              		.file 20 "/home/gokul/ChibiOS_2.5.0/os/kernel/include/chsys.h"
  98              		.section	.debug_info,"",%progbits
  99              	.Ldebug_info0:
 100 0000 54150000 		.4byte	0x1554
 101 0004 0200     		.2byte	0x2
 102 0006 00000000 		.4byte	.Ldebug_abbrev0
 103 000a 04       		.byte	0x4
 104 000b 01       		.uleb128 0x1
 105 000c 21020000 		.4byte	.LASF266
 106 0010 01       		.byte	0x1
 107 0011 C8050000 		.4byte	.LASF267
 108 0015 98020000 		.4byte	.LASF268
 109 0019 00000000 		.4byte	.Ldebug_ranges0+0
 110 001d 00000000 		.4byte	0
ARM GAS  /tmp/cc3Asyhh.s 			page 3


 111 0021 00000000 		.4byte	0
 112 0025 00000000 		.4byte	.Ldebug_line0
 113 0029 02       		.uleb128 0x2
 114 002a 00000000 		.4byte	.LASF11
 115 002e 02       		.byte	0x2
 116 002f D5       		.byte	0xd5
 117 0030 34000000 		.4byte	0x34
 118 0034 03       		.uleb128 0x3
 119 0035 04       		.byte	0x4
 120 0036 07       		.byte	0x7
 121 0037 3D060000 		.4byte	.LASF0
 122 003b 04       		.uleb128 0x4
 123 003c 04       		.byte	0x4
 124 003d 03       		.uleb128 0x3
 125 003e 01       		.byte	0x1
 126 003f 06       		.byte	0x6
 127 0040 AB010000 		.4byte	.LASF1
 128 0044 03       		.uleb128 0x3
 129 0045 01       		.byte	0x1
 130 0046 08       		.byte	0x8
 131 0047 FE010000 		.4byte	.LASF2
 132 004b 03       		.uleb128 0x3
 133 004c 02       		.byte	0x2
 134 004d 05       		.byte	0x5
 135 004e 97080000 		.4byte	.LASF3
 136 0052 03       		.uleb128 0x3
 137 0053 02       		.byte	0x2
 138 0054 07       		.byte	0x7
 139 0055 E6090000 		.4byte	.LASF4
 140 0059 05       		.uleb128 0x5
 141 005a 04       		.byte	0x4
 142 005b 05       		.byte	0x5
 143 005c 696E7400 		.ascii	"int\000"
 144 0060 03       		.uleb128 0x3
 145 0061 08       		.byte	0x8
 146 0062 05       		.byte	0x5
 147 0063 8B050000 		.4byte	.LASF5
 148 0067 03       		.uleb128 0x3
 149 0068 08       		.byte	0x8
 150 0069 07       		.byte	0x7
 151 006a 5E070000 		.4byte	.LASF6
 152 006e 03       		.uleb128 0x3
 153 006f 04       		.byte	0x4
 154 0070 05       		.byte	0x5
 155 0071 14010000 		.4byte	.LASF7
 156 0075 03       		.uleb128 0x3
 157 0076 04       		.byte	0x4
 158 0077 07       		.byte	0x7
 159 0078 07000000 		.4byte	.LASF8
 160 007c 03       		.uleb128 0x3
 161 007d 04       		.byte	0x4
 162 007e 07       		.byte	0x7
 163 007f 98040000 		.4byte	.LASF9
 164 0083 03       		.uleb128 0x3
 165 0084 01       		.byte	0x1
 166 0085 08       		.byte	0x8
 167 0086 D3020000 		.4byte	.LASF10
ARM GAS  /tmp/cc3Asyhh.s 			page 4


 168 008a 06       		.uleb128 0x6
 169 008b 04       		.byte	0x4
 170 008c 90000000 		.4byte	0x90
 171 0090 07       		.uleb128 0x7
 172 0091 83000000 		.4byte	0x83
 173 0095 02       		.uleb128 0x2
 174 0096 C1010000 		.4byte	.LASF12
 175 009a 03       		.byte	0x3
 176 009b 2A       		.byte	0x2a
 177 009c 44000000 		.4byte	0x44
 178 00a0 02       		.uleb128 0x2
 179 00a1 91070000 		.4byte	.LASF13
 180 00a5 03       		.byte	0x3
 181 00a6 36       		.byte	0x36
 182 00a7 52000000 		.4byte	0x52
 183 00ab 02       		.uleb128 0x2
 184 00ac 40000000 		.4byte	.LASF14
 185 00b0 03       		.byte	0x3
 186 00b1 4F       		.byte	0x4f
 187 00b2 6E000000 		.4byte	0x6e
 188 00b6 02       		.uleb128 0x2
 189 00b7 98090000 		.4byte	.LASF15
 190 00bb 03       		.byte	0x3
 191 00bc 50       		.byte	0x50
 192 00bd 7C000000 		.4byte	0x7c
 193 00c1 02       		.uleb128 0x2
 194 00c2 A1080000 		.4byte	.LASF16
 195 00c6 03       		.byte	0x3
 196 00c7 78       		.byte	0x78
 197 00c8 67000000 		.4byte	0x67
 198 00cc 02       		.uleb128 0x2
 199 00cd BF090000 		.4byte	.LASF17
 200 00d1 03       		.byte	0x3
 201 00d2 A6       		.byte	0xa6
 202 00d3 34000000 		.4byte	0x34
 203 00d7 02       		.uleb128 0x2
 204 00d8 EF080000 		.4byte	.LASF18
 205 00dc 04       		.byte	0x4
 206 00dd 27       		.byte	0x27
 207 00de AB000000 		.4byte	0xab
 208 00e2 02       		.uleb128 0x2
 209 00e3 63080000 		.4byte	.LASF19
 210 00e7 04       		.byte	0x4
 211 00e8 28       		.byte	0x28
 212 00e9 95000000 		.4byte	0x95
 213 00ed 02       		.uleb128 0x2
 214 00ee 43010000 		.4byte	.LASF20
 215 00f2 04       		.byte	0x4
 216 00f3 29       		.byte	0x29
 217 00f4 95000000 		.4byte	0x95
 218 00f8 02       		.uleb128 0x2
 219 00f9 58090000 		.4byte	.LASF21
 220 00fd 04       		.byte	0x4
 221 00fe 2A       		.byte	0x2a
 222 00ff 95000000 		.4byte	0x95
 223 0103 02       		.uleb128 0x2
 224 0104 D6070000 		.4byte	.LASF22
ARM GAS  /tmp/cc3Asyhh.s 			page 5


 225 0108 04       		.byte	0x4
 226 0109 2B       		.byte	0x2b
 227 010a 95000000 		.4byte	0x95
 228 010e 02       		.uleb128 0x2
 229 010f 20000000 		.4byte	.LASF23
 230 0113 04       		.byte	0x4
 231 0114 2C       		.byte	0x2c
 232 0115 B6000000 		.4byte	0xb6
 233 0119 02       		.uleb128 0x2
 234 011a A7070000 		.4byte	.LASF24
 235 011e 04       		.byte	0x4
 236 011f 2D       		.byte	0x2d
 237 0120 AB000000 		.4byte	0xab
 238 0124 02       		.uleb128 0x2
 239 0125 E3010000 		.4byte	.LASF25
 240 0129 04       		.byte	0x4
 241 012a 2F       		.byte	0x2f
 242 012b B6000000 		.4byte	0xb6
 243 012f 02       		.uleb128 0x2
 244 0130 10000000 		.4byte	.LASF26
 245 0134 04       		.byte	0x4
 246 0135 30       		.byte	0x30
 247 0136 B6000000 		.4byte	0xb6
 248 013a 02       		.uleb128 0x2
 249 013b 2F090000 		.4byte	.LASF27
 250 013f 05       		.byte	0x5
 251 0140 23       		.byte	0x23
 252 0141 45010000 		.4byte	0x145
 253 0145 08       		.uleb128 0x8
 254 0146 2F090000 		.4byte	.LASF27
 255 014a 4C       		.byte	0x4c
 256 014b 06       		.byte	0x6
 257 014c 57       		.byte	0x57
 258 014d 78020000 		.4byte	0x278
 259 0151 09       		.uleb128 0x9
 260 0152 1D010000 		.4byte	.LASF28
 261 0156 06       		.byte	0x6
 262 0157 58       		.byte	0x58
 263 0158 9D020000 		.4byte	0x29d
 264 015c 02       		.byte	0x2
 265 015d 23       		.byte	0x23
 266 015e 00       		.uleb128 0
 267 015f 09       		.uleb128 0x9
 268 0160 3C010000 		.4byte	.LASF29
 269 0164 06       		.byte	0x6
 270 0165 5A       		.byte	0x5a
 271 0166 9D020000 		.4byte	0x29d
 272 016a 02       		.byte	0x2
 273 016b 23       		.byte	0x23
 274 016c 04       		.uleb128 0x4
 275 016d 09       		.uleb128 0x9
 276 016e EB020000 		.4byte	.LASF30
 277 0172 06       		.byte	0x6
 278 0173 5C       		.byte	0x5c
 279 0174 0E010000 		.4byte	0x10e
 280 0178 02       		.byte	0x2
 281 0179 23       		.byte	0x23
ARM GAS  /tmp/cc3Asyhh.s 			page 6


 282 017a 08       		.uleb128 0x8
 283 017b 09       		.uleb128 0x9
 284 017c 1A000000 		.4byte	.LASF31
 285 0180 06       		.byte	0x6
 286 0181 5D       		.byte	0x5d
 287 0182 74030000 		.4byte	0x374
 288 0186 02       		.byte	0x2
 289 0187 23       		.byte	0x23
 290 0188 0C       		.uleb128 0xc
 291 0189 09       		.uleb128 0x9
 292 018a 0C010000 		.4byte	.LASF32
 293 018e 06       		.byte	0x6
 294 018f 5F       		.byte	0x5f
 295 0190 9D020000 		.4byte	0x29d
 296 0194 02       		.byte	0x2
 297 0195 23       		.byte	0x23
 298 0196 10       		.uleb128 0x10
 299 0197 09       		.uleb128 0x9
 300 0198 7E070000 		.4byte	.LASF33
 301 019c 06       		.byte	0x6
 302 019d 60       		.byte	0x60
 303 019e 9D020000 		.4byte	0x29d
 304 01a2 02       		.byte	0x2
 305 01a3 23       		.byte	0x23
 306 01a4 14       		.uleb128 0x14
 307 01a5 09       		.uleb128 0x9
 308 01a6 6B0A0000 		.4byte	.LASF34
 309 01aa 06       		.byte	0x6
 310 01ab 67       		.byte	0x67
 311 01ac 8A000000 		.4byte	0x8a
 312 01b0 02       		.byte	0x2
 313 01b1 23       		.byte	0x23
 314 01b2 18       		.uleb128 0x18
 315 01b3 09       		.uleb128 0x9
 316 01b4 1B0A0000 		.4byte	.LASF35
 317 01b8 06       		.byte	0x6
 318 01b9 6D       		.byte	0x6d
 319 01ba 8C040000 		.4byte	0x48c
 320 01be 02       		.byte	0x2
 321 01bf 23       		.byte	0x23
 322 01c0 1C       		.uleb128 0x1c
 323 01c1 09       		.uleb128 0x9
 324 01c2 B70A0000 		.4byte	.LASF36
 325 01c6 06       		.byte	0x6
 326 01c7 72       		.byte	0x72
 327 01c8 ED000000 		.4byte	0xed
 328 01cc 02       		.byte	0x2
 329 01cd 23       		.byte	0x23
 330 01ce 20       		.uleb128 0x20
 331 01cf 09       		.uleb128 0x9
 332 01d0 21060000 		.4byte	.LASF37
 333 01d4 06       		.byte	0x6
 334 01d5 76       		.byte	0x76
 335 01d6 E2000000 		.4byte	0xe2
 336 01da 02       		.byte	0x2
 337 01db 23       		.byte	0x23
 338 01dc 21       		.uleb128 0x21
ARM GAS  /tmp/cc3Asyhh.s 			page 7


 339 01dd 09       		.uleb128 0x9
 340 01de 7D060000 		.4byte	.LASF38
 341 01e2 06       		.byte	0x6
 342 01e3 7B       		.byte	0x7b
 343 01e4 F8000000 		.4byte	0xf8
 344 01e8 02       		.byte	0x2
 345 01e9 23       		.byte	0x23
 346 01ea 22       		.uleb128 0x22
 347 01eb 09       		.uleb128 0x9
 348 01ec B7010000 		.4byte	.LASF39
 349 01f0 06       		.byte	0x6
 350 01f1 81       		.byte	0x81
 351 01f2 03010000 		.4byte	0x103
 352 01f6 02       		.byte	0x2
 353 01f7 23       		.byte	0x23
 354 01f8 23       		.uleb128 0x23
 355 01f9 09       		.uleb128 0x9
 356 01fa F4060000 		.4byte	.LASF40
 357 01fe 06       		.byte	0x6
 358 01ff 88       		.byte	0x88
 359 0200 9C030000 		.4byte	0x39c
 360 0204 02       		.byte	0x2
 361 0205 23       		.byte	0x23
 362 0206 24       		.uleb128 0x24
 363 0207 0A       		.uleb128 0xa
 364 0208 705F7500 		.ascii	"p_u\000"
 365 020c 06       		.byte	0x6
 366 020d AD       		.byte	0xad
 367 020e 57040000 		.4byte	0x457
 368 0212 02       		.byte	0x2
 369 0213 23       		.byte	0x23
 370 0214 28       		.uleb128 0x28
 371 0215 09       		.uleb128 0x9
 372 0216 11060000 		.4byte	.LASF41
 373 021a 06       		.byte	0x6
 374 021b B2       		.byte	0xb2
 375 021c C5020000 		.4byte	0x2c5
 376 0220 02       		.byte	0x2
 377 0221 23       		.byte	0x23
 378 0222 2C       		.uleb128 0x2c
 379 0223 09       		.uleb128 0x9
 380 0224 28000000 		.4byte	.LASF42
 381 0228 06       		.byte	0x6
 382 0229 B8       		.byte	0xb8
 383 022a A3020000 		.4byte	0x2a3
 384 022e 02       		.byte	0x2
 385 022f 23       		.byte	0x23
 386 0230 30       		.uleb128 0x30
 387 0231 09       		.uleb128 0x9
 388 0232 A50A0000 		.4byte	.LASF43
 389 0236 06       		.byte	0x6
 390 0237 BC       		.byte	0xbc
 391 0238 19010000 		.4byte	0x119
 392 023c 02       		.byte	0x2
 393 023d 23       		.byte	0x23
 394 023e 38       		.uleb128 0x38
 395 023f 09       		.uleb128 0x9
ARM GAS  /tmp/cc3Asyhh.s 			page 8


 396 0240 04040000 		.4byte	.LASF44
 397 0244 06       		.byte	0x6
 398 0245 C2       		.byte	0xc2
 399 0246 24010000 		.4byte	0x124
 400 024a 02       		.byte	0x2
 401 024b 23       		.byte	0x23
 402 024c 3C       		.uleb128 0x3c
 403 024d 09       		.uleb128 0x9
 404 024e 5D010000 		.4byte	.LASF45
 405 0252 06       		.byte	0x6
 406 0253 C9       		.byte	0xc9
 407 0254 92040000 		.4byte	0x492
 408 0258 02       		.byte	0x2
 409 0259 23       		.byte	0x23
 410 025a 40       		.uleb128 0x40
 411 025b 09       		.uleb128 0x9
 412 025c 15070000 		.4byte	.LASF46
 413 0260 06       		.byte	0x6
 414 0261 CD       		.byte	0xcd
 415 0262 0E010000 		.4byte	0x10e
 416 0266 02       		.byte	0x2
 417 0267 23       		.byte	0x23
 418 0268 44       		.uleb128 0x44
 419 0269 09       		.uleb128 0x9
 420 026a 69060000 		.4byte	.LASF47
 421 026e 06       		.byte	0x6
 422 026f D3       		.byte	0xd3
 423 0270 3B000000 		.4byte	0x3b
 424 0274 02       		.byte	0x2
 425 0275 23       		.byte	0x23
 426 0276 48       		.uleb128 0x48
 427 0277 00       		.byte	0
 428 0278 0B       		.uleb128 0xb
 429 0279 08       		.byte	0x8
 430 027a 05       		.byte	0x5
 431 027b 5A       		.byte	0x5a
 432 027c 9D020000 		.4byte	0x29d
 433 0280 09       		.uleb128 0x9
 434 0281 1D010000 		.4byte	.LASF28
 435 0285 05       		.byte	0x5
 436 0286 5B       		.byte	0x5b
 437 0287 9D020000 		.4byte	0x29d
 438 028b 02       		.byte	0x2
 439 028c 23       		.byte	0x23
 440 028d 00       		.uleb128 0
 441 028e 09       		.uleb128 0x9
 442 028f 3C010000 		.4byte	.LASF29
 443 0293 05       		.byte	0x5
 444 0294 5D       		.byte	0x5d
 445 0295 9D020000 		.4byte	0x29d
 446 0299 02       		.byte	0x2
 447 029a 23       		.byte	0x23
 448 029b 04       		.uleb128 0x4
 449 029c 00       		.byte	0
 450 029d 06       		.uleb128 0x6
 451 029e 04       		.byte	0x4
 452 029f 3A010000 		.4byte	0x13a
ARM GAS  /tmp/cc3Asyhh.s 			page 9


 453 02a3 02       		.uleb128 0x2
 454 02a4 B2090000 		.4byte	.LASF48
 455 02a8 05       		.byte	0x5
 456 02a9 5F       		.byte	0x5f
 457 02aa 78020000 		.4byte	0x278
 458 02ae 0B       		.uleb128 0xb
 459 02af 04       		.byte	0x4
 460 02b0 05       		.byte	0x5
 461 02b1 64       		.byte	0x64
 462 02b2 C5020000 		.4byte	0x2c5
 463 02b6 09       		.uleb128 0x9
 464 02b7 1D010000 		.4byte	.LASF28
 465 02bb 05       		.byte	0x5
 466 02bc 66       		.byte	0x66
 467 02bd 9D020000 		.4byte	0x29d
 468 02c1 02       		.byte	0x2
 469 02c2 23       		.byte	0x23
 470 02c3 00       		.uleb128 0
 471 02c4 00       		.byte	0
 472 02c5 02       		.uleb128 0x2
 473 02c6 99060000 		.4byte	.LASF49
 474 02ca 05       		.byte	0x5
 475 02cb 69       		.byte	0x69
 476 02cc AE020000 		.4byte	0x2ae
 477 02d0 02       		.uleb128 0x2
 478 02d1 76010000 		.4byte	.LASF50
 479 02d5 07       		.byte	0x7
 480 02d6 DE       		.byte	0xde
 481 02d7 3B000000 		.4byte	0x3b
 482 02db 02       		.uleb128 0x2
 483 02dc 3D030000 		.4byte	.LASF51
 484 02e0 07       		.byte	0x7
 485 02e1 E4       		.byte	0xe4
 486 02e2 C1000000 		.4byte	0xc1
 487 02e6 0C       		.uleb128 0xc
 488 02e7 FD030000 		.4byte	.LASF52
 489 02eb 24       		.byte	0x24
 490 02ec 07       		.byte	0x7
 491 02ed 0501     		.2byte	0x105
 492 02ef 74030000 		.4byte	0x374
 493 02f3 0D       		.uleb128 0xd
 494 02f4 723400   		.ascii	"r4\000"
 495 02f7 07       		.byte	0x7
 496 02f8 1801     		.2byte	0x118
 497 02fa D0020000 		.4byte	0x2d0
 498 02fe 02       		.byte	0x2
 499 02ff 23       		.byte	0x23
 500 0300 00       		.uleb128 0
 501 0301 0D       		.uleb128 0xd
 502 0302 723500   		.ascii	"r5\000"
 503 0305 07       		.byte	0x7
 504 0306 1901     		.2byte	0x119
 505 0308 D0020000 		.4byte	0x2d0
 506 030c 02       		.byte	0x2
 507 030d 23       		.byte	0x23
 508 030e 04       		.uleb128 0x4
 509 030f 0D       		.uleb128 0xd
ARM GAS  /tmp/cc3Asyhh.s 			page 10


 510 0310 723600   		.ascii	"r6\000"
 511 0313 07       		.byte	0x7
 512 0314 1A01     		.2byte	0x11a
 513 0316 D0020000 		.4byte	0x2d0
 514 031a 02       		.byte	0x2
 515 031b 23       		.byte	0x23
 516 031c 08       		.uleb128 0x8
 517 031d 0D       		.uleb128 0xd
 518 031e 723700   		.ascii	"r7\000"
 519 0321 07       		.byte	0x7
 520 0322 1B01     		.2byte	0x11b
 521 0324 D0020000 		.4byte	0x2d0
 522 0328 02       		.byte	0x2
 523 0329 23       		.byte	0x23
 524 032a 0C       		.uleb128 0xc
 525 032b 0D       		.uleb128 0xd
 526 032c 723800   		.ascii	"r8\000"
 527 032f 07       		.byte	0x7
 528 0330 1C01     		.2byte	0x11c
 529 0332 D0020000 		.4byte	0x2d0
 530 0336 02       		.byte	0x2
 531 0337 23       		.byte	0x23
 532 0338 10       		.uleb128 0x10
 533 0339 0D       		.uleb128 0xd
 534 033a 723900   		.ascii	"r9\000"
 535 033d 07       		.byte	0x7
 536 033e 1D01     		.2byte	0x11d
 537 0340 D0020000 		.4byte	0x2d0
 538 0344 02       		.byte	0x2
 539 0345 23       		.byte	0x23
 540 0346 14       		.uleb128 0x14
 541 0347 0D       		.uleb128 0xd
 542 0348 72313000 		.ascii	"r10\000"
 543 034c 07       		.byte	0x7
 544 034d 1E01     		.2byte	0x11e
 545 034f D0020000 		.4byte	0x2d0
 546 0353 02       		.byte	0x2
 547 0354 23       		.byte	0x23
 548 0355 18       		.uleb128 0x18
 549 0356 0D       		.uleb128 0xd
 550 0357 72313100 		.ascii	"r11\000"
 551 035b 07       		.byte	0x7
 552 035c 1F01     		.2byte	0x11f
 553 035e D0020000 		.4byte	0x2d0
 554 0362 02       		.byte	0x2
 555 0363 23       		.byte	0x23
 556 0364 1C       		.uleb128 0x1c
 557 0365 0D       		.uleb128 0xd
 558 0366 6C7200   		.ascii	"lr\000"
 559 0369 07       		.byte	0x7
 560 036a 2001     		.2byte	0x120
 561 036c D0020000 		.4byte	0x2d0
 562 0370 02       		.byte	0x2
 563 0371 23       		.byte	0x23
 564 0372 20       		.uleb128 0x20
 565 0373 00       		.byte	0
 566 0374 0C       		.uleb128 0xc
ARM GAS  /tmp/cc3Asyhh.s 			page 11


 567 0375 EF010000 		.4byte	.LASF53
 568 0379 04       		.byte	0x4
 569 037a 07       		.byte	0x7
 570 037b 2A01     		.2byte	0x12a
 571 037d 91030000 		.4byte	0x391
 572 0381 0D       		.uleb128 0xd
 573 0382 72313300 		.ascii	"r13\000"
 574 0386 07       		.byte	0x7
 575 0387 2B01     		.2byte	0x12b
 576 0389 91030000 		.4byte	0x391
 577 038d 02       		.byte	0x2
 578 038e 23       		.byte	0x23
 579 038f 00       		.uleb128 0
 580 0390 00       		.byte	0
 581 0391 06       		.uleb128 0x6
 582 0392 04       		.byte	0x4
 583 0393 E6020000 		.4byte	0x2e6
 584 0397 0E       		.uleb128 0xe
 585 0398 B6000000 		.4byte	0xb6
 586 039c 0E       		.uleb128 0xe
 587 039d 2F010000 		.4byte	0x12f
 588 03a1 08       		.uleb128 0x8
 589 03a2 85050000 		.4byte	.LASF54
 590 03a6 10       		.byte	0x10
 591 03a7 08       		.byte	0x8
 592 03a8 25       		.byte	0x25
 593 03a9 D8030000 		.4byte	0x3d8
 594 03ad 09       		.uleb128 0x9
 595 03ae A8050000 		.4byte	.LASF55
 596 03b2 08       		.byte	0x8
 597 03b3 26       		.byte	0x26
 598 03b4 A3020000 		.4byte	0x2a3
 599 03b8 02       		.byte	0x2
 600 03b9 23       		.byte	0x23
 601 03ba 00       		.uleb128 0
 602 03bb 09       		.uleb128 0x9
 603 03bc AD000000 		.4byte	.LASF56
 604 03c0 08       		.byte	0x8
 605 03c1 28       		.byte	0x28
 606 03c2 9D020000 		.4byte	0x29d
 607 03c6 02       		.byte	0x2
 608 03c7 23       		.byte	0x23
 609 03c8 08       		.uleb128 0x8
 610 03c9 09       		.uleb128 0x9
 611 03ca 720A0000 		.4byte	.LASF57
 612 03ce 08       		.byte	0x8
 613 03cf 2A       		.byte	0x2a
 614 03d0 D8030000 		.4byte	0x3d8
 615 03d4 02       		.byte	0x2
 616 03d5 23       		.byte	0x23
 617 03d6 0C       		.uleb128 0xc
 618 03d7 00       		.byte	0
 619 03d8 06       		.uleb128 0x6
 620 03d9 04       		.byte	0x4
 621 03da A1030000 		.4byte	0x3a1
 622 03de 02       		.uleb128 0x2
 623 03df 85050000 		.4byte	.LASF54
ARM GAS  /tmp/cc3Asyhh.s 			page 12


 624 03e3 08       		.byte	0x8
 625 03e4 2C       		.byte	0x2c
 626 03e5 A1030000 		.4byte	0x3a1
 627 03e9 02       		.uleb128 0x2
 628 03ea 67090000 		.4byte	.LASF58
 629 03ee 09       		.byte	0x9
 630 03ef 22       		.byte	0x22
 631 03f0 F4030000 		.4byte	0x3f4
 632 03f4 08       		.uleb128 0x8
 633 03f5 67090000 		.4byte	.LASF58
 634 03f9 0C       		.byte	0xc
 635 03fa 09       		.byte	0x9
 636 03fb 27       		.byte	0x27
 637 03fc 2B040000 		.4byte	0x42b
 638 0400 09       		.uleb128 0x9
 639 0401 DE040000 		.4byte	.LASF59
 640 0405 09       		.byte	0x9
 641 0406 28       		.byte	0x28
 642 0407 2B040000 		.4byte	0x42b
 643 040b 02       		.byte	0x2
 644 040c 23       		.byte	0x23
 645 040d 00       		.uleb128 0
 646 040e 09       		.uleb128 0x9
 647 040f AB0A0000 		.4byte	.LASF60
 648 0413 09       		.byte	0x9
 649 0414 2B       		.byte	0x2b
 650 0415 9D020000 		.4byte	0x29d
 651 0419 02       		.byte	0x2
 652 041a 23       		.byte	0x23
 653 041b 04       		.uleb128 0x4
 654 041c 09       		.uleb128 0x9
 655 041d 2E0A0000 		.4byte	.LASF61
 656 0421 09       		.byte	0x9
 657 0422 2D       		.byte	0x2d
 658 0423 24010000 		.4byte	0x124
 659 0427 02       		.byte	0x2
 660 0428 23       		.byte	0x23
 661 0429 08       		.uleb128 0x8
 662 042a 00       		.byte	0
 663 042b 06       		.uleb128 0x6
 664 042c 04       		.byte	0x4
 665 042d E9030000 		.4byte	0x3e9
 666 0431 08       		.uleb128 0x8
 667 0432 84040000 		.4byte	.LASF62
 668 0436 04       		.byte	0x4
 669 0437 09       		.byte	0x9
 670 0438 35       		.byte	0x35
 671 0439 4C040000 		.4byte	0x44c
 672 043d 09       		.uleb128 0x9
 673 043e 69040000 		.4byte	.LASF63
 674 0442 09       		.byte	0x9
 675 0443 36       		.byte	0x36
 676 0444 2B040000 		.4byte	0x42b
 677 0448 02       		.byte	0x2
 678 0449 23       		.byte	0x23
 679 044a 00       		.uleb128 0
 680 044b 00       		.byte	0
ARM GAS  /tmp/cc3Asyhh.s 			page 13


 681 044c 02       		.uleb128 0x2
 682 044d 84040000 		.4byte	.LASF62
 683 0451 09       		.byte	0x9
 684 0452 39       		.byte	0x39
 685 0453 31040000 		.4byte	0x431
 686 0457 0F       		.uleb128 0xf
 687 0458 04       		.byte	0x4
 688 0459 06       		.byte	0x6
 689 045a 8F       		.byte	0x8f
 690 045b 8C040000 		.4byte	0x48c
 691 045f 10       		.uleb128 0x10
 692 0460 DF090000 		.4byte	.LASF64
 693 0464 06       		.byte	0x6
 694 0465 96       		.byte	0x96
 695 0466 19010000 		.4byte	0x119
 696 046a 10       		.uleb128 0x10
 697 046b B5000000 		.4byte	.LASF65
 698 046f 06       		.byte	0x6
 699 0470 9D       		.byte	0x9d
 700 0471 19010000 		.4byte	0x119
 701 0475 10       		.uleb128 0x10
 702 0476 09030000 		.4byte	.LASF66
 703 047a 06       		.byte	0x6
 704 047b A4       		.byte	0xa4
 705 047c 3B000000 		.4byte	0x3b
 706 0480 10       		.uleb128 0x10
 707 0481 D2000000 		.4byte	.LASF67
 708 0485 06       		.byte	0x6
 709 0486 AB       		.byte	0xab
 710 0487 24010000 		.4byte	0x124
 711 048b 00       		.byte	0
 712 048c 06       		.uleb128 0x6
 713 048d 04       		.byte	0x4
 714 048e DB020000 		.4byte	0x2db
 715 0492 06       		.uleb128 0x6
 716 0493 04       		.byte	0x4
 717 0494 DE030000 		.4byte	0x3de
 718 0498 06       		.uleb128 0x6
 719 0499 04       		.byte	0x4
 720 049a 9E040000 		.4byte	0x49e
 721 049e 11       		.uleb128 0x11
 722 049f 01       		.byte	0x1
 723 04a0 19010000 		.4byte	0x119
 724 04a4 AE040000 		.4byte	0x4ae
 725 04a8 12       		.uleb128 0x12
 726 04a9 3B000000 		.4byte	0x3b
 727 04ad 00       		.byte	0
 728 04ae 02       		.uleb128 0x2
 729 04af FC020000 		.4byte	.LASF68
 730 04b3 0A       		.byte	0xa
 731 04b4 30       		.byte	0x30
 732 04b5 B9040000 		.4byte	0x4b9
 733 04b9 08       		.uleb128 0x8
 734 04ba FC020000 		.4byte	.LASF68
 735 04be 24       		.byte	0x24
 736 04bf 0A       		.byte	0xa
 737 04c0 3E       		.byte	0x3e
ARM GAS  /tmp/cc3Asyhh.s 			page 14


 738 04c1 36050000 		.4byte	0x536
 739 04c5 09       		.uleb128 0x9
 740 04c6 41080000 		.4byte	.LASF69
 741 04ca 0A       		.byte	0xa
 742 04cb 3F       		.byte	0x3f
 743 04cc A3020000 		.4byte	0x2a3
 744 04d0 02       		.byte	0x2
 745 04d1 23       		.byte	0x23
 746 04d2 00       		.uleb128 0
 747 04d3 09       		.uleb128 0x9
 748 04d4 71040000 		.4byte	.LASF70
 749 04d8 0A       		.byte	0xa
 750 04d9 40       		.byte	0x40
 751 04da 29000000 		.4byte	0x29
 752 04de 02       		.byte	0x2
 753 04df 23       		.byte	0x23
 754 04e0 08       		.uleb128 0x8
 755 04e1 09       		.uleb128 0x9
 756 04e2 DF000000 		.4byte	.LASF71
 757 04e6 0A       		.byte	0xa
 758 04e7 41       		.byte	0x41
 759 04e8 59050000 		.4byte	0x559
 760 04ec 02       		.byte	0x2
 761 04ed 23       		.byte	0x23
 762 04ee 0C       		.uleb128 0xc
 763 04ef 09       		.uleb128 0x9
 764 04f0 CC000000 		.4byte	.LASF72
 765 04f4 0A       		.byte	0xa
 766 04f5 42       		.byte	0x42
 767 04f6 59050000 		.4byte	0x559
 768 04fa 02       		.byte	0x2
 769 04fb 23       		.byte	0x23
 770 04fc 10       		.uleb128 0x10
 771 04fd 09       		.uleb128 0x9
 772 04fe F9040000 		.4byte	.LASF73
 773 0502 0A       		.byte	0xa
 774 0503 44       		.byte	0x44
 775 0504 59050000 		.4byte	0x559
 776 0508 02       		.byte	0x2
 777 0509 23       		.byte	0x23
 778 050a 14       		.uleb128 0x14
 779 050b 09       		.uleb128 0x9
 780 050c 24010000 		.4byte	.LASF74
 781 0510 0A       		.byte	0xa
 782 0511 45       		.byte	0x45
 783 0512 59050000 		.4byte	0x559
 784 0516 02       		.byte	0x2
 785 0517 23       		.byte	0x23
 786 0518 18       		.uleb128 0x18
 787 0519 09       		.uleb128 0x9
 788 051a 03010000 		.4byte	.LASF75
 789 051e 0A       		.byte	0xa
 790 051f 46       		.byte	0x46
 791 0520 36050000 		.4byte	0x536
 792 0524 02       		.byte	0x2
 793 0525 23       		.byte	0x23
 794 0526 1C       		.uleb128 0x1c
ARM GAS  /tmp/cc3Asyhh.s 			page 15


 795 0527 09       		.uleb128 0x9
 796 0528 1A020000 		.4byte	.LASF76
 797 052c 0A       		.byte	0xa
 798 052d 47       		.byte	0x47
 799 052e 3B000000 		.4byte	0x3b
 800 0532 02       		.byte	0x2
 801 0533 23       		.byte	0x23
 802 0534 20       		.uleb128 0x20
 803 0535 00       		.byte	0
 804 0536 02       		.uleb128 0x2
 805 0537 07060000 		.4byte	.LASF77
 806 053b 0A       		.byte	0xa
 807 053c 33       		.byte	0x33
 808 053d 41050000 		.4byte	0x541
 809 0541 06       		.uleb128 0x6
 810 0542 04       		.byte	0x4
 811 0543 47050000 		.4byte	0x547
 812 0547 13       		.uleb128 0x13
 813 0548 01       		.byte	0x1
 814 0549 53050000 		.4byte	0x553
 815 054d 12       		.uleb128 0x12
 816 054e 53050000 		.4byte	0x553
 817 0552 00       		.byte	0
 818 0553 06       		.uleb128 0x6
 819 0554 04       		.byte	0x4
 820 0555 AE040000 		.4byte	0x4ae
 821 0559 06       		.uleb128 0x6
 822 055a 04       		.byte	0x4
 823 055b 95000000 		.4byte	0x95
 824 055f 02       		.uleb128 0x2
 825 0560 100A0000 		.4byte	.LASF78
 826 0564 0A       		.byte	0xa
 827 0565 7B       		.byte	0x7b
 828 0566 AE040000 		.4byte	0x4ae
 829 056a 02       		.uleb128 0x2
 830 056b 48030000 		.4byte	.LASF79
 831 056f 0A       		.byte	0xa
 832 0570 EE       		.byte	0xee
 833 0571 AE040000 		.4byte	0x4ae
 834 0575 08       		.uleb128 0x8
 835 0576 4B080000 		.4byte	.LASF80
 836 057a 10       		.byte	0x10
 837 057b 0B       		.byte	0xb
 838 057c 41       		.byte	0x41
 839 057d BA050000 		.4byte	0x5ba
 840 0581 09       		.uleb128 0x9
 841 0582 64000000 		.4byte	.LASF81
 842 0586 0B       		.byte	0xb
 843 0587 42       		.byte	0x42
 844 0588 DF050000 		.4byte	0x5df
 845 058c 02       		.byte	0x2
 846 058d 23       		.byte	0x23
 847 058e 00       		.uleb128 0
 848 058f 09       		.uleb128 0x9
 849 0590 32060000 		.4byte	.LASF82
 850 0594 0B       		.byte	0xb
 851 0595 42       		.byte	0x42
ARM GAS  /tmp/cc3Asyhh.s 			page 16


 852 0596 FF050000 		.4byte	0x5ff
 853 059a 02       		.byte	0x2
 854 059b 23       		.byte	0x23
 855 059c 04       		.uleb128 0x4
 856 059d 0A       		.uleb128 0xa
 857 059e 70757400 		.ascii	"put\000"
 858 05a2 0B       		.byte	0xb
 859 05a3 42       		.byte	0x42
 860 05a4 1A060000 		.4byte	0x61a
 861 05a8 02       		.byte	0x2
 862 05a9 23       		.byte	0x23
 863 05aa 08       		.uleb128 0x8
 864 05ab 0A       		.uleb128 0xa
 865 05ac 67657400 		.ascii	"get\000"
 866 05b0 0B       		.byte	0xb
 867 05b1 42       		.byte	0x42
 868 05b2 98040000 		.4byte	0x498
 869 05b6 02       		.byte	0x2
 870 05b7 23       		.byte	0x23
 871 05b8 0C       		.uleb128 0xc
 872 05b9 00       		.byte	0
 873 05ba 11       		.uleb128 0x11
 874 05bb 01       		.byte	0x1
 875 05bc 29000000 		.4byte	0x29
 876 05c0 D4050000 		.4byte	0x5d4
 877 05c4 12       		.uleb128 0x12
 878 05c5 3B000000 		.4byte	0x3b
 879 05c9 12       		.uleb128 0x12
 880 05ca D4050000 		.4byte	0x5d4
 881 05ce 12       		.uleb128 0x12
 882 05cf 29000000 		.4byte	0x29
 883 05d3 00       		.byte	0
 884 05d4 06       		.uleb128 0x6
 885 05d5 04       		.byte	0x4
 886 05d6 DA050000 		.4byte	0x5da
 887 05da 07       		.uleb128 0x7
 888 05db 95000000 		.4byte	0x95
 889 05df 06       		.uleb128 0x6
 890 05e0 04       		.byte	0x4
 891 05e1 BA050000 		.4byte	0x5ba
 892 05e5 11       		.uleb128 0x11
 893 05e6 01       		.byte	0x1
 894 05e7 29000000 		.4byte	0x29
 895 05eb FF050000 		.4byte	0x5ff
 896 05ef 12       		.uleb128 0x12
 897 05f0 3B000000 		.4byte	0x3b
 898 05f4 12       		.uleb128 0x12
 899 05f5 59050000 		.4byte	0x559
 900 05f9 12       		.uleb128 0x12
 901 05fa 29000000 		.4byte	0x29
 902 05fe 00       		.byte	0
 903 05ff 06       		.uleb128 0x6
 904 0600 04       		.byte	0x4
 905 0601 E5050000 		.4byte	0x5e5
 906 0605 11       		.uleb128 0x11
 907 0606 01       		.byte	0x1
 908 0607 19010000 		.4byte	0x119
ARM GAS  /tmp/cc3Asyhh.s 			page 17


 909 060b 1A060000 		.4byte	0x61a
 910 060f 12       		.uleb128 0x12
 911 0610 3B000000 		.4byte	0x3b
 912 0614 12       		.uleb128 0x12
 913 0615 95000000 		.4byte	0x95
 914 0619 00       		.byte	0
 915 061a 06       		.uleb128 0x6
 916 061b 04       		.byte	0x4
 917 061c 05060000 		.4byte	0x605
 918 0620 0B       		.uleb128 0xb
 919 0621 04       		.byte	0x4
 920 0622 0B       		.byte	0xb
 921 0623 4A       		.byte	0x4a
 922 0624 37060000 		.4byte	0x637
 923 0628 0A       		.uleb128 0xa
 924 0629 766D7400 		.ascii	"vmt\000"
 925 062d 0B       		.byte	0xb
 926 062e 4C       		.byte	0x4c
 927 062f 37060000 		.4byte	0x637
 928 0633 02       		.byte	0x2
 929 0634 23       		.byte	0x23
 930 0635 00       		.uleb128 0
 931 0636 00       		.byte	0
 932 0637 06       		.uleb128 0x6
 933 0638 04       		.byte	0x4
 934 0639 3D060000 		.4byte	0x63d
 935 063d 07       		.uleb128 0x7
 936 063e 75050000 		.4byte	0x575
 937 0642 02       		.uleb128 0x2
 938 0643 6A000000 		.4byte	.LASF83
 939 0647 0B       		.byte	0xb
 940 0648 4E       		.byte	0x4e
 941 0649 20060000 		.4byte	0x620
 942 064d 14       		.uleb128 0x14
 943 064e B6000000 		.4byte	0xb6
 944 0652 5D060000 		.4byte	0x65d
 945 0656 15       		.uleb128 0x15
 946 0657 75000000 		.4byte	0x75
 947 065b 0E       		.byte	0xe
 948 065c 00       		.byte	0
 949 065d 0E       		.uleb128 0xe
 950 065e AB000000 		.4byte	0xab
 951 0662 11       		.uleb128 0x11
 952 0663 01       		.byte	0x1
 953 0664 19010000 		.4byte	0x119
 954 0668 7C060000 		.4byte	0x67c
 955 066c 12       		.uleb128 0x12
 956 066d 3B000000 		.4byte	0x3b
 957 0671 12       		.uleb128 0x12
 958 0672 95000000 		.4byte	0x95
 959 0676 12       		.uleb128 0x12
 960 0677 2F010000 		.4byte	0x12f
 961 067b 00       		.byte	0
 962 067c 06       		.uleb128 0x6
 963 067d 04       		.byte	0x4
 964 067e 62060000 		.4byte	0x662
 965 0682 11       		.uleb128 0x11
ARM GAS  /tmp/cc3Asyhh.s 			page 18


 966 0683 01       		.byte	0x1
 967 0684 19010000 		.4byte	0x119
 968 0688 97060000 		.4byte	0x697
 969 068c 12       		.uleb128 0x12
 970 068d 3B000000 		.4byte	0x3b
 971 0691 12       		.uleb128 0x12
 972 0692 2F010000 		.4byte	0x12f
 973 0696 00       		.byte	0
 974 0697 06       		.uleb128 0x6
 975 0698 04       		.byte	0x4
 976 0699 82060000 		.4byte	0x682
 977 069d 11       		.uleb128 0x11
 978 069e 01       		.byte	0x1
 979 069f 29000000 		.4byte	0x29
 980 06a3 BC060000 		.4byte	0x6bc
 981 06a7 12       		.uleb128 0x12
 982 06a8 3B000000 		.4byte	0x3b
 983 06ac 12       		.uleb128 0x12
 984 06ad D4050000 		.4byte	0x5d4
 985 06b1 12       		.uleb128 0x12
 986 06b2 29000000 		.4byte	0x29
 987 06b6 12       		.uleb128 0x12
 988 06b7 2F010000 		.4byte	0x12f
 989 06bb 00       		.byte	0
 990 06bc 06       		.uleb128 0x6
 991 06bd 04       		.byte	0x4
 992 06be 9D060000 		.4byte	0x69d
 993 06c2 11       		.uleb128 0x11
 994 06c3 01       		.byte	0x1
 995 06c4 29000000 		.4byte	0x29
 996 06c8 E1060000 		.4byte	0x6e1
 997 06cc 12       		.uleb128 0x12
 998 06cd 3B000000 		.4byte	0x3b
 999 06d1 12       		.uleb128 0x12
 1000 06d2 59050000 		.4byte	0x559
 1001 06d6 12       		.uleb128 0x12
 1002 06d7 29000000 		.4byte	0x29
 1003 06db 12       		.uleb128 0x12
 1004 06dc 2F010000 		.4byte	0x12f
 1005 06e0 00       		.byte	0
 1006 06e1 06       		.uleb128 0x6
 1007 06e2 04       		.byte	0x4
 1008 06e3 C2060000 		.4byte	0x6c2
 1009 06e7 02       		.uleb128 0x2
 1010 06e8 8E060000 		.4byte	.LASF84
 1011 06ec 0C       		.byte	0xc
 1012 06ed DF       		.byte	0xdf
 1013 06ee CC000000 		.4byte	0xcc
 1014 06f2 11       		.uleb128 0x11
 1015 06f3 01       		.byte	0x1
 1016 06f4 E7060000 		.4byte	0x6e7
 1017 06f8 02070000 		.4byte	0x702
 1018 06fc 12       		.uleb128 0x12
 1019 06fd 3B000000 		.4byte	0x3b
 1020 0701 00       		.byte	0
 1021 0702 06       		.uleb128 0x6
 1022 0703 04       		.byte	0x4
ARM GAS  /tmp/cc3Asyhh.s 			page 19


 1023 0704 F2060000 		.4byte	0x6f2
 1024 0708 02       		.uleb128 0x2
 1025 0709 C5060000 		.4byte	.LASF85
 1026 070d 0D       		.byte	0xd
 1027 070e CB       		.byte	0xcb
 1028 070f 13070000 		.4byte	0x713
 1029 0713 16       		.uleb128 0x16
 1030 0714 C5060000 		.4byte	.LASF85
 1031 0718 8801     		.2byte	0x188
 1032 071a 0E       		.byte	0xe
 1033 071b 6901     		.2byte	0x169
 1034 071d 5D080000 		.4byte	0x85d
 1035 0721 17       		.uleb128 0x17
 1036 0722 8F000000 		.4byte	.LASF86
 1037 0726 0E       		.byte	0xe
 1038 0727 6D01     		.2byte	0x16d
 1039 0729 8F080000 		.4byte	0x88f
 1040 072d 02       		.byte	0x2
 1041 072e 23       		.byte	0x23
 1042 072f 00       		.uleb128 0
 1043 0730 17       		.uleb128 0x17
 1044 0731 88000000 		.4byte	.LASF87
 1045 0735 0E       		.byte	0xe
 1046 0736 7101     		.2byte	0x171
 1047 0738 69120000 		.4byte	0x1269
 1048 073c 02       		.byte	0x2
 1049 073d 23       		.byte	0x23
 1050 073e 04       		.uleb128 0x4
 1051 073f 17       		.uleb128 0x17
 1052 0740 B1040000 		.4byte	.LASF88
 1053 0744 0E       		.byte	0xe
 1054 0745 7601     		.2byte	0x176
 1055 0747 3B000000 		.4byte	0x3b
 1056 074b 02       		.byte	0x2
 1057 074c 23       		.byte	0x23
 1058 074d 08       		.uleb128 0x8
 1059 074e 17       		.uleb128 0x17
 1060 074f 7C030000 		.4byte	.LASF89
 1061 0753 0E       		.byte	0xe
 1062 0754 7A01     		.2byte	0x17a
 1063 0756 A0000000 		.4byte	0xa0
 1064 075a 02       		.byte	0x2
 1065 075b 23       		.byte	0x23
 1066 075c 0C       		.uleb128 0xc
 1067 075d 17       		.uleb128 0x17
 1068 075e F2020000 		.4byte	.LASF90
 1069 0762 0E       		.byte	0xe
 1070 0763 7E01     		.2byte	0x17e
 1071 0765 A0000000 		.4byte	0xa0
 1072 0769 02       		.byte	0x2
 1073 076a 23       		.byte	0x23
 1074 076b 0E       		.uleb128 0xe
 1075 076c 0D       		.uleb128 0xd
 1076 076d 65706300 		.ascii	"epc\000"
 1077 0771 0E       		.byte	0xe
 1078 0772 8201     		.2byte	0x182
 1079 0774 74120000 		.4byte	0x1274
ARM GAS  /tmp/cc3Asyhh.s 			page 20


 1080 0778 02       		.byte	0x2
 1081 0779 23       		.byte	0x23
 1082 077a 10       		.uleb128 0x10
 1083 077b 17       		.uleb128 0x17
 1084 077c 75020000 		.4byte	.LASF91
 1085 0780 0E       		.byte	0xe
 1086 0781 8601     		.2byte	0x186
 1087 0783 C7080000 		.4byte	0x8c7
 1088 0787 02       		.byte	0x2
 1089 0788 23       		.byte	0x23
 1090 0789 20       		.uleb128 0x20
 1091 078a 17       		.uleb128 0x17
 1092 078b B9050000 		.4byte	.LASF92
 1093 078f 0E       		.byte	0xe
 1094 0790 8A01     		.2byte	0x18a
 1095 0792 59050000 		.4byte	0x559
 1096 0796 02       		.byte	0x2
 1097 0797 23       		.byte	0x23
 1098 0798 24       		.uleb128 0x24
 1099 0799 17       		.uleb128 0x17
 1100 079a D8020000 		.4byte	.LASF93
 1101 079e 0E       		.byte	0xe
 1102 079f 8E01     		.2byte	0x18e
 1103 07a1 29000000 		.4byte	0x29
 1104 07a5 02       		.byte	0x2
 1105 07a6 23       		.byte	0x23
 1106 07a7 28       		.uleb128 0x28
 1107 07a8 17       		.uleb128 0x17
 1108 07a9 BF040000 		.4byte	.LASF94
 1109 07ad 0E       		.byte	0xe
 1110 07ae 9201     		.2byte	0x192
 1111 07b0 3E090000 		.4byte	0x93e
 1112 07b4 02       		.byte	0x2
 1113 07b5 23       		.byte	0x23
 1114 07b6 2C       		.uleb128 0x2c
 1115 07b7 17       		.uleb128 0x17
 1116 07b8 F7030000 		.4byte	.LASF95
 1117 07bc 0E       		.byte	0xe
 1118 07bd 9601     		.2byte	0x196
 1119 07bf 8F120000 		.4byte	0x128f
 1120 07c3 02       		.byte	0x2
 1121 07c4 23       		.byte	0x23
 1122 07c5 30       		.uleb128 0x30
 1123 07c6 17       		.uleb128 0x17
 1124 07c7 AA040000 		.4byte	.LASF96
 1125 07cb 0E       		.byte	0xe
 1126 07cc 9A01     		.2byte	0x19a
 1127 07ce A0000000 		.4byte	0xa0
 1128 07d2 02       		.byte	0x2
 1129 07d3 23       		.byte	0x23
 1130 07d4 38       		.uleb128 0x38
 1131 07d5 17       		.uleb128 0x17
 1132 07d6 B7040000 		.4byte	.LASF97
 1133 07da 0E       		.byte	0xe
 1134 07db 9E01     		.2byte	0x19e
 1135 07dd 95000000 		.4byte	0x95
 1136 07e1 02       		.byte	0x2
ARM GAS  /tmp/cc3Asyhh.s 			page 21


 1137 07e2 23       		.byte	0x23
 1138 07e3 3A       		.uleb128 0x3a
 1139 07e4 17       		.uleb128 0x17
 1140 07e5 53040000 		.4byte	.LASF98
 1141 07e9 0E       		.byte	0xe
 1142 07ea A201     		.2byte	0x1a2
 1143 07ec 95000000 		.4byte	0x95
 1144 07f0 02       		.byte	0x2
 1145 07f1 23       		.byte	0x23
 1146 07f2 3B       		.uleb128 0x3b
 1147 07f3 0D       		.uleb128 0xd
 1148 07f4 6F746700 		.ascii	"otg\000"
 1149 07f8 0E       		.byte	0xe
 1150 07f9 AA01     		.2byte	0x1aa
 1151 07fb 9F120000 		.4byte	0x129f
 1152 07ff 02       		.byte	0x2
 1153 0800 23       		.byte	0x23
 1154 0801 3C       		.uleb128 0x3c
 1155 0802 17       		.uleb128 0x17
 1156 0803 20070000 		.4byte	.LASF99
 1157 0807 0E       		.byte	0xe
 1158 0808 AE01     		.2byte	0x1ae
 1159 080a A5120000 		.4byte	0x12a5
 1160 080e 02       		.byte	0x2
 1161 080f 23       		.byte	0x23
 1162 0810 40       		.uleb128 0x40
 1163 0811 17       		.uleb128 0x17
 1164 0812 790A0000 		.4byte	.LASF100
 1165 0816 0E       		.byte	0xe
 1166 0817 B201     		.2byte	0x1b2
 1167 0819 B6000000 		.4byte	0xb6
 1168 081d 02       		.byte	0x2
 1169 081e 23       		.byte	0x23
 1170 081f 44       		.uleb128 0x44
 1171 0820 17       		.uleb128 0x17
 1172 0821 5F060000 		.4byte	.LASF101
 1173 0825 0E       		.byte	0xe
 1174 0826 B601     		.2byte	0x1b6
 1175 0828 B6000000 		.4byte	0xb6
 1176 082c 02       		.byte	0x2
 1177 082d 23       		.byte	0x23
 1178 082e 48       		.uleb128 0x48
 1179 082f 17       		.uleb128 0x17
 1180 0830 12050000 		.4byte	.LASF102
 1181 0834 0E       		.byte	0xe
 1182 0835 BA01     		.2byte	0x1ba
 1183 0837 9D020000 		.4byte	0x29d
 1184 083b 02       		.byte	0x2
 1185 083c 23       		.byte	0x23
 1186 083d 4C       		.uleb128 0x4c
 1187 083e 17       		.uleb128 0x17
 1188 083f 67010000 		.4byte	.LASF103
 1189 0843 0E       		.byte	0xe
 1190 0844 BE01     		.2byte	0x1be
 1191 0846 9D020000 		.4byte	0x29d
 1192 084a 02       		.byte	0x2
 1193 084b 23       		.byte	0x23
ARM GAS  /tmp/cc3Asyhh.s 			page 22


 1194 084c 50       		.uleb128 0x50
 1195 084d 17       		.uleb128 0x17
 1196 084e 7E080000 		.4byte	.LASF104
 1197 0852 0E       		.byte	0xe
 1198 0853 C201     		.2byte	0x1c2
 1199 0855 B0120000 		.4byte	0x12b0
 1200 0859 02       		.byte	0x2
 1201 085a 23       		.byte	0x23
 1202 085b 58       		.uleb128 0x58
 1203 085c 00       		.byte	0
 1204 085d 02       		.uleb128 0x2
 1205 085e A1090000 		.4byte	.LASF105
 1206 0862 0D       		.byte	0xd
 1207 0863 D0       		.byte	0xd0
 1208 0864 95000000 		.4byte	0x95
 1209 0868 18       		.uleb128 0x18
 1210 0869 01       		.byte	0x1
 1211 086a 0D       		.byte	0xd
 1212 086b D5       		.byte	0xd5
 1213 086c 8F080000 		.4byte	0x88f
 1214 0870 19       		.uleb128 0x19
 1215 0871 36070000 		.4byte	.LASF106
 1216 0875 00       		.sleb128 0
 1217 0876 19       		.uleb128 0x19
 1218 0877 D8060000 		.4byte	.LASF107
 1219 087b 01       		.sleb128 1
 1220 087c 19       		.uleb128 0x19
 1221 087d 99050000 		.4byte	.LASF108
 1222 0881 02       		.sleb128 2
 1223 0882 19       		.uleb128 0x19
 1224 0883 46040000 		.4byte	.LASF109
 1225 0887 03       		.sleb128 3
 1226 0888 19       		.uleb128 0x19
 1227 0889 A2000000 		.4byte	.LASF110
 1228 088d 04       		.sleb128 4
 1229 088e 00       		.byte	0
 1230 088f 02       		.uleb128 0x2
 1231 0890 28050000 		.4byte	.LASF111
 1232 0894 0D       		.byte	0xd
 1233 0895 DB       		.byte	0xdb
 1234 0896 68080000 		.4byte	0x868
 1235 089a 18       		.uleb128 0x18
 1236 089b 01       		.byte	0x1
 1237 089c 0D       		.byte	0xd
 1238 089d E9       		.byte	0xe9
 1239 089e C7080000 		.4byte	0x8c7
 1240 08a2 19       		.uleb128 0x19
 1241 08a3 85010000 		.4byte	.LASF112
 1242 08a7 00       		.sleb128 0
 1243 08a8 19       		.uleb128 0x19
 1244 08a9 86070000 		.4byte	.LASF113
 1245 08ad 01       		.sleb128 1
 1246 08ae 19       		.uleb128 0x19
 1247 08af 570A0000 		.4byte	.LASF114
 1248 08b3 02       		.sleb128 2
 1249 08b4 19       		.uleb128 0x19
 1250 08b5 910A0000 		.4byte	.LASF115
ARM GAS  /tmp/cc3Asyhh.s 			page 23


 1251 08b9 03       		.sleb128 3
 1252 08ba 19       		.uleb128 0x19
 1253 08bb 3E0A0000 		.4byte	.LASF116
 1254 08bf 04       		.sleb128 4
 1255 08c0 19       		.uleb128 0x19
 1256 08c1 0C020000 		.4byte	.LASF117
 1257 08c5 05       		.sleb128 5
 1258 08c6 00       		.byte	0
 1259 08c7 02       		.uleb128 0x2
 1260 08c8 BE000000 		.4byte	.LASF118
 1261 08cc 0D       		.byte	0xd
 1262 08cd F0       		.byte	0xf0
 1263 08ce 9A080000 		.4byte	0x89a
 1264 08d2 18       		.uleb128 0x18
 1265 08d3 01       		.byte	0x1
 1266 08d4 0D       		.byte	0xd
 1267 08d5 F5       		.byte	0xf5
 1268 08d6 FF080000 		.4byte	0x8ff
 1269 08da 19       		.uleb128 0x19
 1270 08db AF080000 		.4byte	.LASF119
 1271 08df 00       		.sleb128 0
 1272 08e0 19       		.uleb128 0x19
 1273 08e1 E8000000 		.4byte	.LASF120
 1274 08e5 01       		.sleb128 1
 1275 08e6 19       		.uleb128 0x19
 1276 08e7 27080000 		.4byte	.LASF121
 1277 08eb 02       		.sleb128 2
 1278 08ec 19       		.uleb128 0x19
 1279 08ed CD090000 		.4byte	.LASF122
 1280 08f1 03       		.sleb128 3
 1281 08f2 19       		.uleb128 0x19
 1282 08f3 63050000 		.4byte	.LASF123
 1283 08f7 04       		.sleb128 4
 1284 08f8 19       		.uleb128 0x19
 1285 08f9 C9010000 		.4byte	.LASF124
 1286 08fd 05       		.sleb128 5
 1287 08fe 00       		.byte	0
 1288 08ff 02       		.uleb128 0x2
 1289 0900 17040000 		.4byte	.LASF125
 1290 0904 0D       		.byte	0xd
 1291 0905 FC       		.byte	0xfc
 1292 0906 D2080000 		.4byte	0x8d2
 1293 090a 1A       		.uleb128 0x1a
 1294 090b 08       		.byte	0x8
 1295 090c 0D       		.byte	0xd
 1296 090d 0101     		.2byte	0x101
 1297 090f 32090000 		.4byte	0x932
 1298 0913 17       		.uleb128 0x17
 1299 0914 2B040000 		.4byte	.LASF126
 1300 0918 0D       		.byte	0xd
 1301 0919 0501     		.2byte	0x105
 1302 091b 29000000 		.4byte	0x29
 1303 091f 02       		.byte	0x2
 1304 0920 23       		.byte	0x23
 1305 0921 00       		.uleb128 0
 1306 0922 17       		.uleb128 0x17
 1307 0923 22030000 		.4byte	.LASF127
ARM GAS  /tmp/cc3Asyhh.s 			page 24


 1308 0927 0D       		.byte	0xd
 1309 0928 0901     		.2byte	0x109
 1310 092a D4050000 		.4byte	0x5d4
 1311 092e 02       		.byte	0x2
 1312 092f 23       		.byte	0x23
 1313 0930 04       		.uleb128 0x4
 1314 0931 00       		.byte	0
 1315 0932 1B       		.uleb128 0x1b
 1316 0933 D6030000 		.4byte	.LASF128
 1317 0937 0D       		.byte	0xd
 1318 0938 0A01     		.2byte	0x10a
 1319 093a 0A090000 		.4byte	0x90a
 1320 093e 1B       		.uleb128 0x1b
 1321 093f 21090000 		.4byte	.LASF129
 1322 0943 0D       		.byte	0xd
 1323 0944 1201     		.2byte	0x112
 1324 0946 4A090000 		.4byte	0x94a
 1325 094a 06       		.uleb128 0x6
 1326 094b 04       		.byte	0x4
 1327 094c 50090000 		.4byte	0x950
 1328 0950 13       		.uleb128 0x13
 1329 0951 01       		.byte	0x1
 1330 0952 5C090000 		.4byte	0x95c
 1331 0956 12       		.uleb128 0x12
 1332 0957 5C090000 		.4byte	0x95c
 1333 095b 00       		.byte	0
 1334 095c 06       		.uleb128 0x6
 1335 095d 04       		.byte	0x4
 1336 095e 08070000 		.4byte	0x708
 1337 0962 1B       		.uleb128 0x1b
 1338 0963 D8050000 		.4byte	.LASF130
 1339 0967 0D       		.byte	0xd
 1340 0968 1B01     		.2byte	0x11b
 1341 096a 6E090000 		.4byte	0x96e
 1342 096e 06       		.uleb128 0x6
 1343 096f 04       		.byte	0x4
 1344 0970 74090000 		.4byte	0x974
 1345 0974 13       		.uleb128 0x13
 1346 0975 01       		.byte	0x1
 1347 0976 85090000 		.4byte	0x985
 1348 097a 12       		.uleb128 0x12
 1349 097b 5C090000 		.4byte	0x95c
 1350 097f 12       		.uleb128 0x12
 1351 0980 5D080000 		.4byte	0x85d
 1352 0984 00       		.byte	0
 1353 0985 1B       		.uleb128 0x1b
 1354 0986 5A030000 		.4byte	.LASF131
 1355 098a 0D       		.byte	0xd
 1356 098b 2401     		.2byte	0x124
 1357 098d 91090000 		.4byte	0x991
 1358 0991 06       		.uleb128 0x6
 1359 0992 04       		.byte	0x4
 1360 0993 97090000 		.4byte	0x997
 1361 0997 13       		.uleb128 0x13
 1362 0998 01       		.byte	0x1
 1363 0999 A8090000 		.4byte	0x9a8
 1364 099d 12       		.uleb128 0x12
ARM GAS  /tmp/cc3Asyhh.s 			page 25


 1365 099e 5C090000 		.4byte	0x95c
 1366 09a2 12       		.uleb128 0x12
 1367 09a3 FF080000 		.4byte	0x8ff
 1368 09a7 00       		.byte	0
 1369 09a8 1B       		.uleb128 0x1b
 1370 09a9 09090000 		.4byte	.LASF132
 1371 09ad 0D       		.byte	0xd
 1372 09ae 3001     		.2byte	0x130
 1373 09b0 B4090000 		.4byte	0x9b4
 1374 09b4 06       		.uleb128 0x6
 1375 09b5 04       		.byte	0x4
 1376 09b6 BA090000 		.4byte	0x9ba
 1377 09ba 11       		.uleb128 0x11
 1378 09bb 01       		.byte	0x1
 1379 09bc D7000000 		.4byte	0xd7
 1380 09c0 CA090000 		.4byte	0x9ca
 1381 09c4 12       		.uleb128 0x12
 1382 09c5 5C090000 		.4byte	0x95c
 1383 09c9 00       		.byte	0
 1384 09ca 1B       		.uleb128 0x1b
 1385 09cb 6B080000 		.4byte	.LASF133
 1386 09cf 0D       		.byte	0xd
 1387 09d0 3501     		.2byte	0x135
 1388 09d2 D6090000 		.4byte	0x9d6
 1389 09d6 06       		.uleb128 0x6
 1390 09d7 04       		.byte	0x4
 1391 09d8 DC090000 		.4byte	0x9dc
 1392 09dc 11       		.uleb128 0x11
 1393 09dd 01       		.byte	0x1
 1394 09de FB090000 		.4byte	0x9fb
 1395 09e2 FB090000 		.4byte	0x9fb
 1396 09e6 12       		.uleb128 0x12
 1397 09e7 5C090000 		.4byte	0x95c
 1398 09eb 12       		.uleb128 0x12
 1399 09ec 95000000 		.4byte	0x95
 1400 09f0 12       		.uleb128 0x12
 1401 09f1 95000000 		.4byte	0x95
 1402 09f5 12       		.uleb128 0x12
 1403 09f6 A0000000 		.4byte	0xa0
 1404 09fa 00       		.byte	0
 1405 09fb 06       		.uleb128 0x6
 1406 09fc 04       		.byte	0x4
 1407 09fd 010A0000 		.4byte	0xa01
 1408 0a01 07       		.uleb128 0x7
 1409 0a02 32090000 		.4byte	0x932
 1410 0a06 0B       		.uleb128 0xb
 1411 0a07 20       		.byte	0x20
 1412 0a08 0F       		.byte	0xf
 1413 0a09 39       		.byte	0x39
 1414 0a0a 7F0A0000 		.4byte	0xa7f
 1415 0a0e 09       		.uleb128 0x9
 1416 0a0f B9020000 		.4byte	.LASF134
 1417 0a13 0F       		.byte	0xf
 1418 0a14 3A       		.byte	0x3a
 1419 0a15 97030000 		.4byte	0x397
 1420 0a19 02       		.byte	0x2
 1421 0a1a 23       		.byte	0x23
ARM GAS  /tmp/cc3Asyhh.s 			page 26


 1422 0a1b 00       		.uleb128 0
 1423 0a1c 09       		.uleb128 0x9
 1424 0a1d 56000000 		.4byte	.LASF135
 1425 0a21 0F       		.byte	0xf
 1426 0a22 3C       		.byte	0x3c
 1427 0a23 97030000 		.4byte	0x397
 1428 0a27 02       		.byte	0x2
 1429 0a28 23       		.byte	0x23
 1430 0a29 04       		.uleb128 0x4
 1431 0a2a 09       		.uleb128 0x9
 1432 0a2b 9A070000 		.4byte	.LASF136
 1433 0a2f 0F       		.byte	0xf
 1434 0a30 3D       		.byte	0x3d
 1435 0a31 97030000 		.4byte	0x397
 1436 0a35 02       		.byte	0x2
 1437 0a36 23       		.byte	0x23
 1438 0a37 08       		.uleb128 0x8
 1439 0a38 09       		.uleb128 0x9
 1440 0a39 C4070000 		.4byte	.LASF137
 1441 0a3d 0F       		.byte	0xf
 1442 0a3e 3E       		.byte	0x3e
 1443 0a3f 97030000 		.4byte	0x397
 1444 0a43 02       		.byte	0x2
 1445 0a44 23       		.byte	0x23
 1446 0a45 0C       		.uleb128 0xc
 1447 0a46 09       		.uleb128 0x9
 1448 0a47 89030000 		.4byte	.LASF138
 1449 0a4b 0F       		.byte	0xf
 1450 0a4c 40       		.byte	0x40
 1451 0a4d 97030000 		.4byte	0x397
 1452 0a51 02       		.byte	0x2
 1453 0a52 23       		.byte	0x23
 1454 0a53 10       		.uleb128 0x10
 1455 0a54 09       		.uleb128 0x9
 1456 0a55 BF080000 		.4byte	.LASF139
 1457 0a59 0F       		.byte	0xf
 1458 0a5a 42       		.byte	0x42
 1459 0a5b 97030000 		.4byte	0x397
 1460 0a5f 02       		.byte	0x2
 1461 0a60 23       		.byte	0x23
 1462 0a61 14       		.uleb128 0x14
 1463 0a62 09       		.uleb128 0x9
 1464 0a63 C7080000 		.4byte	.LASF140
 1465 0a67 0F       		.byte	0xf
 1466 0a68 43       		.byte	0x43
 1467 0a69 97030000 		.4byte	0x397
 1468 0a6d 02       		.byte	0x2
 1469 0a6e 23       		.byte	0x23
 1470 0a6f 18       		.uleb128 0x18
 1471 0a70 09       		.uleb128 0x9
 1472 0a71 01090000 		.4byte	.LASF141
 1473 0a75 0F       		.byte	0xf
 1474 0a76 44       		.byte	0x44
 1475 0a77 97030000 		.4byte	0x397
 1476 0a7b 02       		.byte	0x2
 1477 0a7c 23       		.byte	0x23
 1478 0a7d 1C       		.uleb128 0x1c
ARM GAS  /tmp/cc3Asyhh.s 			page 27


 1479 0a7e 00       		.byte	0
 1480 0a7f 02       		.uleb128 0x2
 1481 0a80 67030000 		.4byte	.LASF142
 1482 0a84 0F       		.byte	0xf
 1483 0a85 45       		.byte	0x45
 1484 0a86 060A0000 		.4byte	0xa06
 1485 0a8a 0B       		.uleb128 0xb
 1486 0a8b 20       		.byte	0x20
 1487 0a8c 0F       		.byte	0xf
 1488 0a8d 4A       		.byte	0x4a
 1489 0a8e 030B0000 		.4byte	0xb03
 1490 0a92 09       		.uleb128 0x9
 1491 0a93 19090000 		.4byte	.LASF143
 1492 0a97 0F       		.byte	0xf
 1493 0a98 4B       		.byte	0x4b
 1494 0a99 97030000 		.4byte	0x397
 1495 0a9d 02       		.byte	0x2
 1496 0a9e 23       		.byte	0x23
 1497 0a9f 00       		.uleb128 0
 1498 0aa0 09       		.uleb128 0x9
 1499 0aa1 4F000000 		.4byte	.LASF144
 1500 0aa5 0F       		.byte	0xf
 1501 0aa6 4D       		.byte	0x4d
 1502 0aa7 97030000 		.4byte	0x397
 1503 0aab 02       		.byte	0x2
 1504 0aac 23       		.byte	0x23
 1505 0aad 04       		.uleb128 0x4
 1506 0aae 09       		.uleb128 0x9
 1507 0aaf 47090000 		.4byte	.LASF145
 1508 0ab3 0F       		.byte	0xf
 1509 0ab4 4E       		.byte	0x4e
 1510 0ab5 97030000 		.4byte	0x397
 1511 0ab9 02       		.byte	0x2
 1512 0aba 23       		.byte	0x23
 1513 0abb 08       		.uleb128 0x8
 1514 0abc 09       		.uleb128 0x9
 1515 0abd 5D000000 		.4byte	.LASF146
 1516 0ac1 0F       		.byte	0xf
 1517 0ac2 50       		.byte	0x50
 1518 0ac3 97030000 		.4byte	0x397
 1519 0ac7 02       		.byte	0x2
 1520 0ac8 23       		.byte	0x23
 1521 0ac9 0C       		.uleb128 0xc
 1522 0aca 09       		.uleb128 0x9
 1523 0acb 7E020000 		.4byte	.LASF147
 1524 0acf 0F       		.byte	0xf
 1525 0ad0 51       		.byte	0x51
 1526 0ad1 97030000 		.4byte	0x397
 1527 0ad5 02       		.byte	0x2
 1528 0ad6 23       		.byte	0x23
 1529 0ad7 10       		.uleb128 0x10
 1530 0ad8 09       		.uleb128 0x9
 1531 0ad9 BF080000 		.4byte	.LASF139
 1532 0add 0F       		.byte	0xf
 1533 0ade 53       		.byte	0x53
 1534 0adf 97030000 		.4byte	0x397
 1535 0ae3 02       		.byte	0x2
ARM GAS  /tmp/cc3Asyhh.s 			page 28


 1536 0ae4 23       		.byte	0x23
 1537 0ae5 14       		.uleb128 0x14
 1538 0ae6 09       		.uleb128 0x9
 1539 0ae7 CF080000 		.4byte	.LASF148
 1540 0aeb 0F       		.byte	0xf
 1541 0aec 54       		.byte	0x54
 1542 0aed 97030000 		.4byte	0x397
 1543 0af1 02       		.byte	0x2
 1544 0af2 23       		.byte	0x23
 1545 0af3 18       		.uleb128 0x18
 1546 0af4 09       		.uleb128 0x9
 1547 0af5 DF080000 		.4byte	.LASF149
 1548 0af9 0F       		.byte	0xf
 1549 0afa 56       		.byte	0x56
 1550 0afb 97030000 		.4byte	0x397
 1551 0aff 02       		.byte	0x2
 1552 0b00 23       		.byte	0x23
 1553 0b01 1C       		.uleb128 0x1c
 1554 0b02 00       		.byte	0
 1555 0b03 02       		.uleb128 0x2
 1556 0b04 08080000 		.4byte	.LASF150
 1557 0b08 0F       		.byte	0xf
 1558 0b09 57       		.byte	0x57
 1559 0b0a 8A0A0000 		.4byte	0xa8a
 1560 0b0e 0B       		.uleb128 0xb
 1561 0b0f 20       		.byte	0x20
 1562 0b10 0F       		.byte	0xf
 1563 0b11 5C       		.byte	0x5c
 1564 0b12 870B0000 		.4byte	0xb87
 1565 0b16 09       		.uleb128 0x9
 1566 0b17 A3010000 		.4byte	.LASF151
 1567 0b1b 0F       		.byte	0xf
 1568 0b1c 5D       		.byte	0x5d
 1569 0b1d 97030000 		.4byte	0x397
 1570 0b21 02       		.byte	0x2
 1571 0b22 23       		.byte	0x23
 1572 0b23 00       		.uleb128 0
 1573 0b24 09       		.uleb128 0x9
 1574 0b25 4F000000 		.4byte	.LASF144
 1575 0b29 0F       		.byte	0xf
 1576 0b2a 5F       		.byte	0x5f
 1577 0b2b 97030000 		.4byte	0x397
 1578 0b2f 02       		.byte	0x2
 1579 0b30 23       		.byte	0x23
 1580 0b31 04       		.uleb128 0x4
 1581 0b32 09       		.uleb128 0x9
 1582 0b33 DB010000 		.4byte	.LASF152
 1583 0b37 0F       		.byte	0xf
 1584 0b38 60       		.byte	0x60
 1585 0b39 97030000 		.4byte	0x397
 1586 0b3d 02       		.byte	0x2
 1587 0b3e 23       		.byte	0x23
 1588 0b3f 08       		.uleb128 0x8
 1589 0b40 09       		.uleb128 0x9
 1590 0b41 5D000000 		.4byte	.LASF146
 1591 0b45 0F       		.byte	0xf
 1592 0b46 62       		.byte	0x62
ARM GAS  /tmp/cc3Asyhh.s 			page 29


 1593 0b47 97030000 		.4byte	0x397
 1594 0b4b 02       		.byte	0x2
 1595 0b4c 23       		.byte	0x23
 1596 0b4d 0C       		.uleb128 0xc
 1597 0b4e 09       		.uleb128 0x9
 1598 0b4f 29060000 		.4byte	.LASF153
 1599 0b53 0F       		.byte	0xf
 1600 0b54 63       		.byte	0x63
 1601 0b55 97030000 		.4byte	0x397
 1602 0b59 02       		.byte	0x2
 1603 0b5a 23       		.byte	0x23
 1604 0b5b 10       		.uleb128 0x10
 1605 0b5c 09       		.uleb128 0x9
 1606 0b5d BF080000 		.4byte	.LASF139
 1607 0b61 0F       		.byte	0xf
 1608 0b62 65       		.byte	0x65
 1609 0b63 97030000 		.4byte	0x397
 1610 0b67 02       		.byte	0x2
 1611 0b68 23       		.byte	0x23
 1612 0b69 14       		.uleb128 0x14
 1613 0b6a 09       		.uleb128 0x9
 1614 0b6b C7080000 		.4byte	.LASF140
 1615 0b6f 0F       		.byte	0xf
 1616 0b70 66       		.byte	0x66
 1617 0b71 97030000 		.4byte	0x397
 1618 0b75 02       		.byte	0x2
 1619 0b76 23       		.byte	0x23
 1620 0b77 18       		.uleb128 0x18
 1621 0b78 09       		.uleb128 0x9
 1622 0b79 DF080000 		.4byte	.LASF149
 1623 0b7d 0F       		.byte	0xf
 1624 0b7e 67       		.byte	0x67
 1625 0b7f 97030000 		.4byte	0x397
 1626 0b83 02       		.byte	0x2
 1627 0b84 23       		.byte	0x23
 1628 0b85 1C       		.uleb128 0x1c
 1629 0b86 00       		.byte	0
 1630 0b87 02       		.uleb128 0x2
 1631 0b88 C0020000 		.4byte	.LASF154
 1632 0b8c 0F       		.byte	0xf
 1633 0b8d 68       		.byte	0x68
 1634 0b8e 0E0B0000 		.4byte	0xb0e
 1635 0b92 1C       		.uleb128 0x1c
 1636 0b93 00100100 		.4byte	0x11000
 1637 0b97 0F       		.byte	0xf
 1638 0b98 6D       		.byte	0x6d
 1639 0b99 E10E0000 		.4byte	0xee1
 1640 0b9d 09       		.uleb128 0x9
 1641 0b9e 3C050000 		.4byte	.LASF155
 1642 0ba2 0F       		.byte	0xf
 1643 0ba3 6E       		.byte	0x6e
 1644 0ba4 97030000 		.4byte	0x397
 1645 0ba8 02       		.byte	0x2
 1646 0ba9 23       		.byte	0x23
 1647 0baa 00       		.uleb128 0
 1648 0bab 09       		.uleb128 0x9
 1649 0bac E0070000 		.4byte	.LASF156
ARM GAS  /tmp/cc3Asyhh.s 			page 30


 1650 0bb0 0F       		.byte	0xf
 1651 0bb1 6F       		.byte	0x6f
 1652 0bb2 97030000 		.4byte	0x397
 1653 0bb6 02       		.byte	0x2
 1654 0bb7 23       		.byte	0x23
 1655 0bb8 04       		.uleb128 0x4
 1656 0bb9 09       		.uleb128 0x9
 1657 0bba C8040000 		.4byte	.LASF157
 1658 0bbe 0F       		.byte	0xf
 1659 0bbf 70       		.byte	0x70
 1660 0bc0 97030000 		.4byte	0x397
 1661 0bc4 02       		.byte	0x2
 1662 0bc5 23       		.byte	0x23
 1663 0bc6 08       		.uleb128 0x8
 1664 0bc7 09       		.uleb128 0x9
 1665 0bc8 890A0000 		.4byte	.LASF158
 1666 0bcc 0F       		.byte	0xf
 1667 0bcd 71       		.byte	0x71
 1668 0bce 97030000 		.4byte	0x397
 1669 0bd2 02       		.byte	0x2
 1670 0bd3 23       		.byte	0x23
 1671 0bd4 0C       		.uleb128 0xc
 1672 0bd5 09       		.uleb128 0x9
 1673 0bd6 0F040000 		.4byte	.LASF159
 1674 0bda 0F       		.byte	0xf
 1675 0bdb 72       		.byte	0x72
 1676 0bdc 97030000 		.4byte	0x397
 1677 0be0 02       		.byte	0x2
 1678 0be1 23       		.byte	0x23
 1679 0be2 10       		.uleb128 0x10
 1680 0be3 09       		.uleb128 0x9
 1681 0be4 36090000 		.4byte	.LASF160
 1682 0be8 0F       		.byte	0xf
 1683 0be9 73       		.byte	0x73
 1684 0bea 97030000 		.4byte	0x397
 1685 0bee 02       		.byte	0x2
 1686 0bef 23       		.byte	0x23
 1687 0bf0 14       		.uleb128 0x14
 1688 0bf1 09       		.uleb128 0x9
 1689 0bf2 EC060000 		.4byte	.LASF161
 1690 0bf6 0F       		.byte	0xf
 1691 0bf7 74       		.byte	0x74
 1692 0bf8 97030000 		.4byte	0x397
 1693 0bfc 02       		.byte	0x2
 1694 0bfd 23       		.byte	0x23
 1695 0bfe 18       		.uleb128 0x18
 1696 0bff 09       		.uleb128 0x9
 1697 0c00 5B050000 		.4byte	.LASF162
 1698 0c04 0F       		.byte	0xf
 1699 0c05 75       		.byte	0x75
 1700 0c06 97030000 		.4byte	0x397
 1701 0c0a 02       		.byte	0x2
 1702 0c0b 23       		.byte	0x23
 1703 0c0c 1C       		.uleb128 0x1c
 1704 0c0d 09       		.uleb128 0x9
 1705 0c0e 4A050000 		.4byte	.LASF163
 1706 0c12 0F       		.byte	0xf
ARM GAS  /tmp/cc3Asyhh.s 			page 31


 1707 0c13 77       		.byte	0x77
 1708 0c14 97030000 		.4byte	0x397
 1709 0c18 02       		.byte	0x2
 1710 0c19 23       		.byte	0x23
 1711 0c1a 20       		.uleb128 0x20
 1712 0c1b 09       		.uleb128 0x9
 1713 0c1c 61040000 		.4byte	.LASF164
 1714 0c20 0F       		.byte	0xf
 1715 0c21 79       		.byte	0x79
 1716 0c22 97030000 		.4byte	0x397
 1717 0c26 02       		.byte	0x2
 1718 0c27 23       		.byte	0x23
 1719 0c28 24       		.uleb128 0x24
 1720 0c29 09       		.uleb128 0x9
 1721 0c2a FA000000 		.4byte	.LASF165
 1722 0c2e 0F       		.byte	0xf
 1723 0c2f 7A       		.byte	0x7a
 1724 0c30 97030000 		.4byte	0x397
 1725 0c34 02       		.byte	0x2
 1726 0c35 23       		.byte	0x23
 1727 0c36 28       		.uleb128 0x28
 1728 0c37 09       		.uleb128 0x9
 1729 0c38 4F090000 		.4byte	.LASF166
 1730 0c3c 0F       		.byte	0xf
 1731 0c3d 7C       		.byte	0x7c
 1732 0c3e 97030000 		.4byte	0x397
 1733 0c42 02       		.byte	0x2
 1734 0c43 23       		.byte	0x23
 1735 0c44 2C       		.uleb128 0x2c
 1736 0c45 09       		.uleb128 0x9
 1737 0c46 75090000 		.4byte	.LASF167
 1738 0c4a 0F       		.byte	0xf
 1739 0c4b 7E       		.byte	0x7e
 1740 0c4c 97030000 		.4byte	0x397
 1741 0c50 02       		.byte	0x2
 1742 0c51 23       		.byte	0x23
 1743 0c52 30       		.uleb128 0x30
 1744 0c53 09       		.uleb128 0x9
 1745 0c54 86090000 		.4byte	.LASF168
 1746 0c58 0F       		.byte	0xf
 1747 0c59 7F       		.byte	0x7f
 1748 0c5a 97030000 		.4byte	0x397
 1749 0c5e 02       		.byte	0x2
 1750 0c5f 23       		.byte	0x23
 1751 0c60 34       		.uleb128 0x34
 1752 0c61 09       		.uleb128 0x9
 1753 0c62 6F020000 		.4byte	.LASF169
 1754 0c66 0F       		.byte	0xf
 1755 0c67 80       		.byte	0x80
 1756 0c68 97030000 		.4byte	0x397
 1757 0c6c 02       		.byte	0x2
 1758 0c6d 23       		.byte	0x23
 1759 0c6e 38       		.uleb128 0x38
 1760 0c6f 0A       		.uleb128 0xa
 1761 0c70 43494400 		.ascii	"CID\000"
 1762 0c74 0F       		.byte	0xf
 1763 0c75 81       		.byte	0x81
ARM GAS  /tmp/cc3Asyhh.s 			page 32


 1764 0c76 97030000 		.4byte	0x397
 1765 0c7a 02       		.byte	0x2
 1766 0c7b 23       		.byte	0x23
 1767 0c7c 3C       		.uleb128 0x3c
 1768 0c7d 09       		.uleb128 0x9
 1769 0c7e 360A0000 		.4byte	.LASF170
 1770 0c82 0F       		.byte	0xf
 1771 0c83 82       		.byte	0x82
 1772 0c84 F10E0000 		.4byte	0xef1
 1773 0c88 02       		.byte	0x2
 1774 0c89 23       		.byte	0x23
 1775 0c8a 40       		.uleb128 0x40
 1776 0c8b 09       		.uleb128 0x9
 1777 0c8c 75070000 		.4byte	.LASF171
 1778 0c90 0F       		.byte	0xf
 1779 0c91 83       		.byte	0x83
 1780 0c92 97030000 		.4byte	0x397
 1781 0c96 03       		.byte	0x3
 1782 0c97 23       		.byte	0x23
 1783 0c98 8002     		.uleb128 0x100
 1784 0c9a 09       		.uleb128 0x9
 1785 0c9b 90040000 		.4byte	.LASF172
 1786 0c9f 0F       		.byte	0xf
 1787 0ca0 85       		.byte	0x85
 1788 0ca1 F60E0000 		.4byte	0xef6
 1789 0ca5 03       		.byte	0x3
 1790 0ca6 23       		.byte	0x23
 1791 0ca7 8402     		.uleb128 0x104
 1792 0ca9 09       		.uleb128 0x9
 1793 0caa 9C0A0000 		.4byte	.LASF173
 1794 0cae 0F       		.byte	0xf
 1795 0caf 87       		.byte	0x87
 1796 0cb0 0B0F0000 		.4byte	0xf0b
 1797 0cb4 03       		.byte	0x3
 1798 0cb5 23       		.byte	0x23
 1799 0cb6 C002     		.uleb128 0x140
 1800 0cb8 09       		.uleb128 0x9
 1801 0cb9 B4020000 		.4byte	.LASF174
 1802 0cbd 0F       		.byte	0xf
 1803 0cbe 88       		.byte	0x88
 1804 0cbf 97030000 		.4byte	0x397
 1805 0cc3 03       		.byte	0x3
 1806 0cc4 23       		.byte	0x23
 1807 0cc5 8008     		.uleb128 0x400
 1808 0cc7 09       		.uleb128 0x9
 1809 0cc8 520A0000 		.4byte	.LASF175
 1810 0ccc 0F       		.byte	0xf
 1811 0ccd 89       		.byte	0x89
 1812 0cce 97030000 		.4byte	0x397
 1813 0cd2 03       		.byte	0x3
 1814 0cd3 23       		.byte	0x23
 1815 0cd4 8408     		.uleb128 0x404
 1816 0cd6 09       		.uleb128 0x9
 1817 0cd7 54030000 		.4byte	.LASF176
 1818 0cdb 0F       		.byte	0xf
 1819 0cdc 8A       		.byte	0x8a
 1820 0cdd 97030000 		.4byte	0x397
ARM GAS  /tmp/cc3Asyhh.s 			page 33


 1821 0ce1 03       		.byte	0x3
 1822 0ce2 23       		.byte	0x23
 1823 0ce3 8808     		.uleb128 0x408
 1824 0ce5 09       		.uleb128 0x9
 1825 0ce6 33050000 		.4byte	.LASF177
 1826 0cea 0F       		.byte	0xf
 1827 0ceb 8C       		.byte	0x8c
 1828 0cec 97030000 		.4byte	0x397
 1829 0cf0 03       		.byte	0x3
 1830 0cf1 23       		.byte	0x23
 1831 0cf2 8C08     		.uleb128 0x40c
 1832 0cf4 09       		.uleb128 0x9
 1833 0cf5 260A0000 		.4byte	.LASF178
 1834 0cf9 0F       		.byte	0xf
 1835 0cfa 8D       		.byte	0x8d
 1836 0cfb 97030000 		.4byte	0x397
 1837 0cff 03       		.byte	0x3
 1838 0d00 23       		.byte	0x23
 1839 0d01 9008     		.uleb128 0x410
 1840 0d03 09       		.uleb128 0x9
 1841 0d04 37060000 		.4byte	.LASF179
 1842 0d08 0F       		.byte	0xf
 1843 0d09 8F       		.byte	0x8f
 1844 0d0a 97030000 		.4byte	0x397
 1845 0d0e 03       		.byte	0x3
 1846 0d0f 23       		.byte	0x23
 1847 0d10 9408     		.uleb128 0x414
 1848 0d12 09       		.uleb128 0x9
 1849 0d13 CF060000 		.4byte	.LASF180
 1850 0d17 0F       		.byte	0xf
 1851 0d18 91       		.byte	0x91
 1852 0d19 97030000 		.4byte	0x397
 1853 0d1d 03       		.byte	0x3
 1854 0d1e 23       		.byte	0x23
 1855 0d1f 9808     		.uleb128 0x418
 1856 0d21 09       		.uleb128 0x9
 1857 0d22 B0050000 		.4byte	.LASF181
 1858 0d26 0F       		.byte	0xf
 1859 0d27 93       		.byte	0x93
 1860 0d28 200F0000 		.4byte	0xf20
 1861 0d2c 03       		.byte	0x3
 1862 0d2d 23       		.byte	0x23
 1863 0d2e 9C08     		.uleb128 0x41c
 1864 0d30 09       		.uleb128 0x9
 1865 0d31 E6020000 		.4byte	.LASF182
 1866 0d35 0F       		.byte	0xf
 1867 0d36 94       		.byte	0x94
 1868 0d37 97030000 		.4byte	0x397
 1869 0d3b 03       		.byte	0x3
 1870 0d3c 23       		.byte	0x23
 1871 0d3d C008     		.uleb128 0x440
 1872 0d3f 09       		.uleb128 0x9
 1873 0d40 A5060000 		.4byte	.LASF183
 1874 0d44 0F       		.byte	0xf
 1875 0d45 96       		.byte	0x96
 1876 0d46 350F0000 		.4byte	0xf35
 1877 0d4a 03       		.byte	0x3
ARM GAS  /tmp/cc3Asyhh.s 			page 34


 1878 0d4b 23       		.byte	0x23
 1879 0d4c C408     		.uleb128 0x444
 1880 0d4e 0A       		.uleb128 0xa
 1881 0d4f 686300   		.ascii	"hc\000"
 1882 0d52 0F       		.byte	0xf
 1883 0d53 97       		.byte	0x97
 1884 0d54 3A0F0000 		.4byte	0xf3a
 1885 0d58 03       		.byte	0x3
 1886 0d59 23       		.byte	0x23
 1887 0d5a 800A     		.uleb128 0x500
 1888 0d5c 09       		.uleb128 0x9
 1889 0d5d 7F000000 		.4byte	.LASF184
 1890 0d61 0F       		.byte	0xf
 1891 0d62 98       		.byte	0x98
 1892 0d63 5A0F0000 		.4byte	0xf5a
 1893 0d67 03       		.byte	0x3
 1894 0d68 23       		.byte	0x23
 1895 0d69 800E     		.uleb128 0x700
 1896 0d6b 09       		.uleb128 0x9
 1897 0d6c 6A020000 		.4byte	.LASF185
 1898 0d70 0F       		.byte	0xf
 1899 0d71 99       		.byte	0x99
 1900 0d72 97030000 		.4byte	0x397
 1901 0d76 03       		.byte	0x3
 1902 0d77 23       		.byte	0x23
 1903 0d78 8010     		.uleb128 0x800
 1904 0d7a 09       		.uleb128 0x9
 1905 0d7b AD070000 		.4byte	.LASF186
 1906 0d7f 0F       		.byte	0xf
 1907 0d80 9A       		.byte	0x9a
 1908 0d81 97030000 		.4byte	0x397
 1909 0d85 03       		.byte	0x3
 1910 0d86 23       		.byte	0x23
 1911 0d87 8410     		.uleb128 0x804
 1912 0d89 09       		.uleb128 0x9
 1913 0d8a F9090000 		.4byte	.LASF187
 1914 0d8e 0F       		.byte	0xf
 1915 0d8f 9B       		.byte	0x9b
 1916 0d90 97030000 		.4byte	0x397
 1917 0d94 03       		.byte	0x3
 1918 0d95 23       		.byte	0x23
 1919 0d96 8810     		.uleb128 0x808
 1920 0d98 09       		.uleb128 0x9
 1921 0d99 DD020000 		.4byte	.LASF188
 1922 0d9d 0F       		.byte	0xf
 1923 0d9e 9C       		.byte	0x9c
 1924 0d9f 97030000 		.4byte	0x397
 1925 0da3 03       		.byte	0x3
 1926 0da4 23       		.byte	0x23
 1927 0da5 8C10     		.uleb128 0x80c
 1928 0da7 09       		.uleb128 0x9
 1929 0da8 E7080000 		.4byte	.LASF189
 1930 0dac 0F       		.byte	0xf
 1931 0dad 9D       		.byte	0x9d
 1932 0dae 97030000 		.4byte	0x397
 1933 0db2 03       		.byte	0x3
 1934 0db3 23       		.byte	0x23
ARM GAS  /tmp/cc3Asyhh.s 			page 35


 1935 0db4 9010     		.uleb128 0x810
 1936 0db6 09       		.uleb128 0x9
 1937 0db7 9B010000 		.4byte	.LASF190
 1938 0dbb 0F       		.byte	0xf
 1939 0dbc 9F       		.byte	0x9f
 1940 0dbd 97030000 		.4byte	0x397
 1941 0dc1 03       		.byte	0x3
 1942 0dc2 23       		.byte	0x23
 1943 0dc3 9410     		.uleb128 0x814
 1944 0dc5 09       		.uleb128 0x9
 1945 0dc6 7F010000 		.4byte	.LASF191
 1946 0dca 0F       		.byte	0xf
 1947 0dcb A1       		.byte	0xa1
 1948 0dcc 97030000 		.4byte	0x397
 1949 0dd0 03       		.byte	0x3
 1950 0dd1 23       		.byte	0x23
 1951 0dd2 9810     		.uleb128 0x818
 1952 0dd4 09       		.uleb128 0x9
 1953 0dd5 F6070000 		.4byte	.LASF192
 1954 0dd9 0F       		.byte	0xf
 1955 0dda A3       		.byte	0xa3
 1956 0ddb 97030000 		.4byte	0x397
 1957 0ddf 03       		.byte	0x3
 1958 0de0 23       		.byte	0x23
 1959 0de1 9C10     		.uleb128 0x81c
 1960 0de3 09       		.uleb128 0x9
 1961 0de4 A3030000 		.4byte	.LASF193
 1962 0de8 0F       		.byte	0xf
 1963 0de9 A5       		.byte	0xa5
 1964 0dea 97030000 		.4byte	0x397
 1965 0dee 03       		.byte	0x3
 1966 0def 23       		.byte	0x23
 1967 0df0 A010     		.uleb128 0x820
 1968 0df2 09       		.uleb128 0x9
 1969 0df3 AC030000 		.4byte	.LASF194
 1970 0df7 0F       		.byte	0xf
 1971 0df8 A6       		.byte	0xa6
 1972 0df9 97030000 		.4byte	0x397
 1973 0dfd 03       		.byte	0x3
 1974 0dfe 23       		.byte	0x23
 1975 0dff A410     		.uleb128 0x824
 1976 0e01 09       		.uleb128 0x9
 1977 0e02 FF070000 		.4byte	.LASF195
 1978 0e06 0F       		.byte	0xf
 1979 0e07 A7       		.byte	0xa7
 1980 0e08 97030000 		.4byte	0x397
 1981 0e0c 03       		.byte	0x3
 1982 0e0d 23       		.byte	0x23
 1983 0e0e A810     		.uleb128 0x828
 1984 0e10 09       		.uleb128 0x9
 1985 0e11 B5030000 		.4byte	.LASF196
 1986 0e15 0F       		.byte	0xf
 1987 0e16 A9       		.byte	0xa9
 1988 0e17 97030000 		.4byte	0x397
 1989 0e1b 03       		.byte	0x3
 1990 0e1c 23       		.byte	0x23
 1991 0e1d AC10     		.uleb128 0x82c
ARM GAS  /tmp/cc3Asyhh.s 			page 36


 1992 0e1f 09       		.uleb128 0x9
 1993 0e20 CF050000 		.4byte	.LASF197
 1994 0e24 0F       		.byte	0xf
 1995 0e25 AB       		.byte	0xab
 1996 0e26 97030000 		.4byte	0x397
 1997 0e2a 03       		.byte	0x3
 1998 0e2b 23       		.byte	0x23
 1999 0e2c B010     		.uleb128 0x830
 2000 0e2e 09       		.uleb128 0x9
 2001 0e2f CB030000 		.4byte	.LASF198
 2002 0e33 0F       		.byte	0xf
 2003 0e34 AC       		.byte	0xac
 2004 0e35 97030000 		.4byte	0x397
 2005 0e39 03       		.byte	0x3
 2006 0e3a 23       		.byte	0x23
 2007 0e3b B410     		.uleb128 0x834
 2008 0e3d 09       		.uleb128 0x9
 2009 0e3e 22040000 		.4byte	.LASF199
 2010 0e42 0F       		.byte	0xf
 2011 0e43 AE       		.byte	0xae
 2012 0e44 97030000 		.4byte	0x397
 2013 0e48 03       		.byte	0x3
 2014 0e49 23       		.byte	0x23
 2015 0e4a B810     		.uleb128 0x838
 2016 0e4c 09       		.uleb128 0x9
 2017 0e4d FE050000 		.4byte	.LASF200
 2018 0e51 0F       		.byte	0xf
 2019 0e52 AF       		.byte	0xaf
 2020 0e53 97030000 		.4byte	0x397
 2021 0e57 03       		.byte	0x3
 2022 0e58 23       		.byte	0x23
 2023 0e59 BC10     		.uleb128 0x83c
 2024 0e5b 09       		.uleb128 0x9
 2025 0e5c 7B040000 		.4byte	.LASF201
 2026 0e60 0F       		.byte	0xf
 2027 0e61 B0       		.byte	0xb0
 2028 0e62 6F0F0000 		.4byte	0xf6f
 2029 0e66 03       		.byte	0x3
 2030 0e67 23       		.byte	0x23
 2031 0e68 C010     		.uleb128 0x840
 2032 0e6a 09       		.uleb128 0x9
 2033 0e6b E8050000 		.4byte	.LASF202
 2034 0e6f 0F       		.byte	0xf
 2035 0e70 B1       		.byte	0xb1
 2036 0e71 740F0000 		.4byte	0xf74
 2037 0e75 03       		.byte	0x3
 2038 0e76 23       		.byte	0x23
 2039 0e77 8011     		.uleb128 0x880
 2040 0e79 09       		.uleb128 0x9
 2041 0e7a 7D090000 		.4byte	.LASF203
 2042 0e7e 0F       		.byte	0xf
 2043 0e7f B2       		.byte	0xb2
 2044 0e80 790F0000 		.4byte	0xf79
 2045 0e84 03       		.byte	0x3
 2046 0e85 23       		.byte	0x23
 2047 0e86 C011     		.uleb128 0x8c0
 2048 0e88 0A       		.uleb128 0xa
ARM GAS  /tmp/cc3Asyhh.s 			page 37


 2049 0e89 696500   		.ascii	"ie\000"
 2050 0e8c 0F       		.byte	0xf
 2051 0e8d B3       		.byte	0xb3
 2052 0e8e 7E0F0000 		.4byte	0xf7e
 2053 0e92 03       		.byte	0x3
 2054 0e93 23       		.byte	0x23
 2055 0e94 8012     		.uleb128 0x900
 2056 0e96 0A       		.uleb128 0xa
 2057 0e97 6F6500   		.ascii	"oe\000"
 2058 0e9a 0F       		.byte	0xf
 2059 0e9b B4       		.byte	0xb4
 2060 0e9c 8E0F0000 		.4byte	0xf8e
 2061 0ea0 03       		.byte	0x3
 2062 0ea1 23       		.byte	0x23
 2063 0ea2 8016     		.uleb128 0xb00
 2064 0ea4 09       		.uleb128 0x9
 2065 0ea5 55070000 		.4byte	.LASF204
 2066 0ea9 0F       		.byte	0xf
 2067 0eaa B5       		.byte	0xb5
 2068 0eab 9E0F0000 		.4byte	0xf9e
 2069 0eaf 03       		.byte	0x3
 2070 0eb0 23       		.byte	0x23
 2071 0eb1 801A     		.uleb128 0xd00
 2072 0eb3 09       		.uleb128 0x9
 2073 0eb4 74050000 		.4byte	.LASF205
 2074 0eb8 0F       		.byte	0xf
 2075 0eb9 B6       		.byte	0xb6
 2076 0eba 97030000 		.4byte	0x397
 2077 0ebe 03       		.byte	0x3
 2078 0ebf 23       		.byte	0x23
 2079 0ec0 801C     		.uleb128 0xe00
 2080 0ec2 09       		.uleb128 0x9
 2081 0ec3 10030000 		.4byte	.LASF206
 2082 0ec7 0F       		.byte	0xf
 2083 0ec8 B8       		.byte	0xb8
 2084 0ec9 B30F0000 		.4byte	0xfb3
 2085 0ecd 03       		.byte	0x3
 2086 0ece 23       		.byte	0x23
 2087 0ecf 841C     		.uleb128 0xe04
 2088 0ed1 09       		.uleb128 0x9
 2089 0ed2 3C080000 		.4byte	.LASF207
 2090 0ed6 0F       		.byte	0xf
 2091 0ed7 B9       		.byte	0xb9
 2092 0ed8 CF0F0000 		.4byte	0xfcf
 2093 0edc 03       		.byte	0x3
 2094 0edd 23       		.byte	0x23
 2095 0ede 8020     		.uleb128 0x1000
 2096 0ee0 00       		.byte	0
 2097 0ee1 14       		.uleb128 0x14
 2098 0ee2 B6000000 		.4byte	0xb6
 2099 0ee6 F10E0000 		.4byte	0xef1
 2100 0eea 15       		.uleb128 0x15
 2101 0eeb 75000000 		.4byte	0x75
 2102 0eef 2F       		.byte	0x2f
 2103 0ef0 00       		.byte	0
 2104 0ef1 0E       		.uleb128 0xe
 2105 0ef2 E10E0000 		.4byte	0xee1
ARM GAS  /tmp/cc3Asyhh.s 			page 38


 2106 0ef6 0E       		.uleb128 0xe
 2107 0ef7 4D060000 		.4byte	0x64d
 2108 0efb 14       		.uleb128 0x14
 2109 0efc B6000000 		.4byte	0xb6
 2110 0f00 0B0F0000 		.4byte	0xf0b
 2111 0f04 15       		.uleb128 0x15
 2112 0f05 75000000 		.4byte	0x75
 2113 0f09 AF       		.byte	0xaf
 2114 0f0a 00       		.byte	0
 2115 0f0b 0E       		.uleb128 0xe
 2116 0f0c FB0E0000 		.4byte	0xefb
 2117 0f10 14       		.uleb128 0x14
 2118 0f11 B6000000 		.4byte	0xb6
 2119 0f15 200F0000 		.4byte	0xf20
 2120 0f19 15       		.uleb128 0x15
 2121 0f1a 75000000 		.4byte	0x75
 2122 0f1e 08       		.byte	0x8
 2123 0f1f 00       		.byte	0
 2124 0f20 0E       		.uleb128 0xe
 2125 0f21 100F0000 		.4byte	0xf10
 2126 0f25 14       		.uleb128 0x14
 2127 0f26 B6000000 		.4byte	0xb6
 2128 0f2a 350F0000 		.4byte	0xf35
 2129 0f2e 15       		.uleb128 0x15
 2130 0f2f 75000000 		.4byte	0x75
 2131 0f33 2E       		.byte	0x2e
 2132 0f34 00       		.byte	0
 2133 0f35 0E       		.uleb128 0xe
 2134 0f36 250F0000 		.4byte	0xf25
 2135 0f3a 14       		.uleb128 0x14
 2136 0f3b 7F0A0000 		.4byte	0xa7f
 2137 0f3f 4A0F0000 		.4byte	0xf4a
 2138 0f43 15       		.uleb128 0x15
 2139 0f44 75000000 		.4byte	0x75
 2140 0f48 0F       		.byte	0xf
 2141 0f49 00       		.byte	0
 2142 0f4a 14       		.uleb128 0x14
 2143 0f4b B6000000 		.4byte	0xb6
 2144 0f4f 5A0F0000 		.4byte	0xf5a
 2145 0f53 15       		.uleb128 0x15
 2146 0f54 75000000 		.4byte	0x75
 2147 0f58 3F       		.byte	0x3f
 2148 0f59 00       		.byte	0
 2149 0f5a 0E       		.uleb128 0xe
 2150 0f5b 4A0F0000 		.4byte	0xf4a
 2151 0f5f 14       		.uleb128 0x14
 2152 0f60 B6000000 		.4byte	0xb6
 2153 0f64 6F0F0000 		.4byte	0xf6f
 2154 0f68 15       		.uleb128 0x15
 2155 0f69 75000000 		.4byte	0x75
 2156 0f6d 0F       		.byte	0xf
 2157 0f6e 00       		.byte	0
 2158 0f6f 0E       		.uleb128 0xe
 2159 0f70 5F0F0000 		.4byte	0xf5f
 2160 0f74 0E       		.uleb128 0xe
 2161 0f75 5F0F0000 		.4byte	0xf5f
 2162 0f79 0E       		.uleb128 0xe
ARM GAS  /tmp/cc3Asyhh.s 			page 39


 2163 0f7a 5F0F0000 		.4byte	0xf5f
 2164 0f7e 14       		.uleb128 0x14
 2165 0f7f 030B0000 		.4byte	0xb03
 2166 0f83 8E0F0000 		.4byte	0xf8e
 2167 0f87 15       		.uleb128 0x15
 2168 0f88 75000000 		.4byte	0x75
 2169 0f8c 0F       		.byte	0xf
 2170 0f8d 00       		.byte	0
 2171 0f8e 14       		.uleb128 0x14
 2172 0f8f 870B0000 		.4byte	0xb87
 2173 0f93 9E0F0000 		.4byte	0xf9e
 2174 0f97 15       		.uleb128 0x15
 2175 0f98 75000000 		.4byte	0x75
 2176 0f9c 0F       		.byte	0xf
 2177 0f9d 00       		.byte	0
 2178 0f9e 0E       		.uleb128 0xe
 2179 0f9f 4A0F0000 		.4byte	0xf4a
 2180 0fa3 14       		.uleb128 0x14
 2181 0fa4 B6000000 		.4byte	0xb6
 2182 0fa8 B30F0000 		.4byte	0xfb3
 2183 0fac 15       		.uleb128 0x15
 2184 0fad 75000000 		.4byte	0x75
 2185 0fb1 7E       		.byte	0x7e
 2186 0fb2 00       		.byte	0
 2187 0fb3 0E       		.uleb128 0xe
 2188 0fb4 A30F0000 		.4byte	0xfa3
 2189 0fb8 14       		.uleb128 0x14
 2190 0fb9 B6000000 		.4byte	0xb6
 2191 0fbd CF0F0000 		.4byte	0xfcf
 2192 0fc1 15       		.uleb128 0x15
 2193 0fc2 75000000 		.4byte	0x75
 2194 0fc6 0F       		.byte	0xf
 2195 0fc7 1D       		.uleb128 0x1d
 2196 0fc8 75000000 		.4byte	0x75
 2197 0fcc FF03     		.2byte	0x3ff
 2198 0fce 00       		.byte	0
 2199 0fcf 0E       		.uleb128 0xe
 2200 0fd0 B80F0000 		.4byte	0xfb8
 2201 0fd4 02       		.uleb128 0x2
 2202 0fd5 71060000 		.4byte	.LASF208
 2203 0fd9 0F       		.byte	0xf
 2204 0fda BA       		.byte	0xba
 2205 0fdb 920B0000 		.4byte	0xb92
 2206 0fdf 0B       		.uleb128 0xb
 2207 0fe0 0C       		.byte	0xc
 2208 0fe1 0E       		.byte	0xe
 2209 0fe2 C0       		.byte	0xc0
 2210 0fe3 12100000 		.4byte	0x1012
 2211 0fe7 09       		.uleb128 0x9
 2212 0fe8 33000000 		.4byte	.LASF209
 2213 0fec 0E       		.byte	0xe
 2214 0fed C1       		.byte	0xc1
 2215 0fee B6000000 		.4byte	0xb6
 2216 0ff2 02       		.byte	0x2
 2217 0ff3 23       		.byte	0x23
 2218 0ff4 00       		.uleb128 0
 2219 0ff5 09       		.uleb128 0x9
ARM GAS  /tmp/cc3Asyhh.s 			page 40


 2220 0ff6 1A080000 		.4byte	.LASF210
 2221 0ffa 0E       		.byte	0xe
 2222 0ffb C2       		.byte	0xc2
 2223 0ffc B6000000 		.4byte	0xb6
 2224 1000 02       		.byte	0x2
 2225 1001 23       		.byte	0x23
 2226 1002 04       		.uleb128 0x4
 2227 1003 09       		.uleb128 0x9
 2228 1004 EB040000 		.4byte	.LASF211
 2229 1008 0E       		.byte	0xe
 2230 1009 C3       		.byte	0xc3
 2231 100a B6000000 		.4byte	0xb6
 2232 100e 02       		.byte	0x2
 2233 100f 23       		.byte	0x23
 2234 1010 08       		.uleb128 0x8
 2235 1011 00       		.byte	0
 2236 1012 02       		.uleb128 0x2
 2237 1013 E4030000 		.4byte	.LASF212
 2238 1017 0E       		.byte	0xe
 2239 1018 C4       		.byte	0xc4
 2240 1019 DF0F0000 		.4byte	0xfdf
 2241 101d 0B       		.uleb128 0xb
 2242 101e 04       		.byte	0x4
 2243 101f 0E       		.byte	0xe
 2244 1020 D7       		.byte	0xd7
 2245 1021 34100000 		.4byte	0x1034
 2246 1025 09       		.uleb128 0x9
 2247 1026 70010000 		.4byte	.LASF213
 2248 102a 0E       		.byte	0xe
 2249 102b DB       		.byte	0xdb
 2250 102c D4050000 		.4byte	0x5d4
 2251 1030 02       		.byte	0x2
 2252 1031 23       		.byte	0x23
 2253 1032 00       		.uleb128 0
 2254 1033 00       		.byte	0
 2255 1034 0B       		.uleb128 0xb
 2256 1035 04       		.byte	0x4
 2257 1036 0E       		.byte	0xe
 2258 1037 DD       		.byte	0xdd
 2259 1038 4B100000 		.4byte	0x104b
 2260 103c 09       		.uleb128 0x9
 2261 103d D7080000 		.4byte	.LASF214
 2262 1041 0E       		.byte	0xe
 2263 1042 E1       		.byte	0xe1
 2264 1043 4B100000 		.4byte	0x104b
 2265 1047 02       		.byte	0x2
 2266 1048 23       		.byte	0x23
 2267 1049 00       		.uleb128 0
 2268 104a 00       		.byte	0
 2269 104b 06       		.uleb128 0x6
 2270 104c 04       		.byte	0x4
 2271 104d 6A050000 		.4byte	0x56a
 2272 1051 0F       		.uleb128 0xf
 2273 1052 04       		.byte	0x4
 2274 1053 0E       		.byte	0xe
 2275 1054 D6       		.byte	0xd6
 2276 1055 70100000 		.4byte	0x1070
ARM GAS  /tmp/cc3Asyhh.s 			page 41


 2277 1059 10       		.uleb128 0x10
 2278 105a A0070000 		.4byte	.LASF215
 2279 105e 0E       		.byte	0xe
 2280 105f DC       		.byte	0xdc
 2281 1060 1D100000 		.4byte	0x101d
 2282 1064 10       		.uleb128 0x10
 2283 1065 E8070000 		.4byte	.LASF216
 2284 1069 0E       		.byte	0xe
 2285 106a E2       		.byte	0xe2
 2286 106b 34100000 		.4byte	0x1034
 2287 106f 00       		.byte	0
 2288 1070 0B       		.uleb128 0xb
 2289 1071 10       		.byte	0x10
 2290 1072 0E       		.byte	0xe
 2291 1073 C9       		.byte	0xc9
 2292 1074 B1100000 		.4byte	0x10b1
 2293 1078 09       		.uleb128 0x9
 2294 1079 800A0000 		.4byte	.LASF217
 2295 107d 0E       		.byte	0xe
 2296 107e CD       		.byte	0xcd
 2297 107f D7000000 		.4byte	0xd7
 2298 1083 02       		.byte	0x2
 2299 1084 23       		.byte	0x23
 2300 1085 00       		.uleb128 0
 2301 1086 09       		.uleb128 0x9
 2302 1087 01050000 		.4byte	.LASF218
 2303 108b 0E       		.byte	0xe
 2304 108c D1       		.byte	0xd1
 2305 108d 29000000 		.4byte	0x29
 2306 1091 02       		.byte	0x2
 2307 1092 23       		.byte	0x23
 2308 1093 04       		.uleb128 0x4
 2309 1094 09       		.uleb128 0x9
 2310 1095 2C010000 		.4byte	.LASF219
 2311 1099 0E       		.byte	0xe
 2312 109a D5       		.byte	0xd5
 2313 109b 29000000 		.4byte	0x29
 2314 109f 02       		.byte	0x2
 2315 10a0 23       		.byte	0x23
 2316 10a1 08       		.uleb128 0x8
 2317 10a2 09       		.uleb128 0x9
 2318 10a3 AA080000 		.4byte	.LASF220
 2319 10a7 0E       		.byte	0xe
 2320 10a8 E3       		.byte	0xe3
 2321 10a9 51100000 		.4byte	0x1051
 2322 10ad 02       		.byte	0x2
 2323 10ae 23       		.byte	0x23
 2324 10af 0C       		.uleb128 0xc
 2325 10b0 00       		.byte	0
 2326 10b1 02       		.uleb128 0x2
 2327 10b2 90030000 		.4byte	.LASF221
 2328 10b6 0E       		.byte	0xe
 2329 10b7 E4       		.byte	0xe4
 2330 10b8 70100000 		.4byte	0x1070
 2331 10bc 0B       		.uleb128 0xb
 2332 10bd 04       		.byte	0x4
 2333 10be 0E       		.byte	0xe
ARM GAS  /tmp/cc3Asyhh.s 			page 42


 2334 10bf F7       		.byte	0xf7
 2335 10c0 D3100000 		.4byte	0x10d3
 2336 10c4 09       		.uleb128 0x9
 2337 10c5 44050000 		.4byte	.LASF222
 2338 10c9 0E       		.byte	0xe
 2339 10ca FB       		.byte	0xfb
 2340 10cb 59050000 		.4byte	0x559
 2341 10cf 02       		.byte	0x2
 2342 10d0 23       		.byte	0x23
 2343 10d1 00       		.uleb128 0
 2344 10d2 00       		.byte	0
 2345 10d3 0B       		.uleb128 0xb
 2346 10d4 04       		.byte	0x4
 2347 10d5 0E       		.byte	0xe
 2348 10d6 FD       		.byte	0xfd
 2349 10d7 EB100000 		.4byte	0x10eb
 2350 10db 17       		.uleb128 0x17
 2351 10dc EE070000 		.4byte	.LASF223
 2352 10e0 0E       		.byte	0xe
 2353 10e1 0101     		.2byte	0x101
 2354 10e3 EB100000 		.4byte	0x10eb
 2355 10e7 02       		.byte	0x2
 2356 10e8 23       		.byte	0x23
 2357 10e9 00       		.uleb128 0
 2358 10ea 00       		.byte	0
 2359 10eb 06       		.uleb128 0x6
 2360 10ec 04       		.byte	0x4
 2361 10ed 5F050000 		.4byte	0x55f
 2362 10f1 0F       		.uleb128 0xf
 2363 10f2 04       		.byte	0x4
 2364 10f3 0E       		.byte	0xe
 2365 10f4 F6       		.byte	0xf6
 2366 10f5 11110000 		.4byte	0x1111
 2367 10f9 10       		.uleb128 0x10
 2368 10fa A0070000 		.4byte	.LASF215
 2369 10fe 0E       		.byte	0xe
 2370 10ff FC       		.byte	0xfc
 2371 1100 BC100000 		.4byte	0x10bc
 2372 1104 1E       		.uleb128 0x1e
 2373 1105 E8070000 		.4byte	.LASF216
 2374 1109 0E       		.byte	0xe
 2375 110a 0201     		.2byte	0x102
 2376 110c D3100000 		.4byte	0x10d3
 2377 1110 00       		.byte	0
 2378 1111 0B       		.uleb128 0xb
 2379 1112 10       		.byte	0x10
 2380 1113 0E       		.byte	0xe
 2381 1114 E9       		.byte	0xe9
 2382 1115 53110000 		.4byte	0x1153
 2383 1119 09       		.uleb128 0x9
 2384 111a CD070000 		.4byte	.LASF224
 2385 111e 0E       		.byte	0xe
 2386 111f ED       		.byte	0xed
 2387 1120 D7000000 		.4byte	0xd7
 2388 1124 02       		.byte	0x2
 2389 1125 23       		.byte	0x23
 2390 1126 00       		.uleb128 0
ARM GAS  /tmp/cc3Asyhh.s 			page 43


 2391 1127 09       		.uleb128 0x9
 2392 1128 F7010000 		.4byte	.LASF225
 2393 112c 0E       		.byte	0xe
 2394 112d F1       		.byte	0xf1
 2395 112e 29000000 		.4byte	0x29
 2396 1132 02       		.byte	0x2
 2397 1133 23       		.byte	0x23
 2398 1134 04       		.uleb128 0x4
 2399 1135 09       		.uleb128 0x9
 2400 1136 22050000 		.4byte	.LASF226
 2401 113a 0E       		.byte	0xe
 2402 113b F5       		.byte	0xf5
 2403 113c 29000000 		.4byte	0x29
 2404 1140 02       		.byte	0x2
 2405 1141 23       		.byte	0x23
 2406 1142 08       		.uleb128 0x8
 2407 1143 17       		.uleb128 0x17
 2408 1144 AA080000 		.4byte	.LASF220
 2409 1148 0E       		.byte	0xe
 2410 1149 0301     		.2byte	0x103
 2411 114b F1100000 		.4byte	0x10f1
 2412 114f 02       		.byte	0x2
 2413 1150 23       		.byte	0x23
 2414 1151 0C       		.uleb128 0xc
 2415 1152 00       		.byte	0
 2416 1153 1B       		.uleb128 0x1b
 2417 1154 41070000 		.4byte	.LASF227
 2418 1158 0E       		.byte	0xe
 2419 1159 0401     		.2byte	0x104
 2420 115b 11110000 		.4byte	0x1111
 2421 115f 1A       		.uleb128 0x1a
 2422 1160 24       		.byte	0x24
 2423 1161 0E       		.byte	0xe
 2424 1162 0A01     		.2byte	0x10a
 2425 1164 FF110000 		.4byte	0x11ff
 2426 1168 17       		.uleb128 0x17
 2427 1169 95000000 		.4byte	.LASF228
 2428 116d 0E       		.byte	0xe
 2429 116e 0E01     		.2byte	0x10e
 2430 1170 B6000000 		.4byte	0xb6
 2431 1174 02       		.byte	0x2
 2432 1175 23       		.byte	0x23
 2433 1176 00       		.uleb128 0
 2434 1177 17       		.uleb128 0x17
 2435 1178 19030000 		.4byte	.LASF229
 2436 117c 0E       		.byte	0xe
 2437 117d 1901     		.2byte	0x119
 2438 117f 62090000 		.4byte	0x962
 2439 1183 02       		.byte	0x2
 2440 1184 23       		.byte	0x23
 2441 1185 04       		.uleb128 0x4
 2442 1186 17       		.uleb128 0x17
 2443 1187 32030000 		.4byte	.LASF230
 2444 118b 0E       		.byte	0xe
 2445 118c 1F01     		.2byte	0x11f
 2446 118e 62090000 		.4byte	0x962
 2447 1192 02       		.byte	0x2
ARM GAS  /tmp/cc3Asyhh.s 			page 44


 2448 1193 23       		.byte	0x23
 2449 1194 08       		.uleb128 0x8
 2450 1195 17       		.uleb128 0x17
 2451 1196 AE060000 		.4byte	.LASF231
 2452 119a 0E       		.byte	0xe
 2453 119b 2501     		.2byte	0x125
 2454 119d 62090000 		.4byte	0x962
 2455 11a1 02       		.byte	0x2
 2456 11a2 23       		.byte	0x23
 2457 11a3 0C       		.uleb128 0xc
 2458 11a4 17       		.uleb128 0x17
 2459 11a5 E1060000 		.4byte	.LASF232
 2460 11a9 0E       		.byte	0xe
 2461 11aa 2B01     		.2byte	0x12b
 2462 11ac A0000000 		.4byte	0xa0
 2463 11b0 02       		.byte	0x2
 2464 11b1 23       		.byte	0x23
 2465 11b2 10       		.uleb128 0x10
 2466 11b3 17       		.uleb128 0x17
 2467 11b4 51010000 		.4byte	.LASF233
 2468 11b8 0E       		.byte	0xe
 2469 11b9 3101     		.2byte	0x131
 2470 11bb A0000000 		.4byte	0xa0
 2471 11bf 02       		.byte	0x2
 2472 11c0 23       		.byte	0x23
 2473 11c1 12       		.uleb128 0x12
 2474 11c2 17       		.uleb128 0x17
 2475 11c3 52050000 		.4byte	.LASF234
 2476 11c7 0E       		.byte	0xe
 2477 11c8 3601     		.2byte	0x136
 2478 11ca FF110000 		.4byte	0x11ff
 2479 11ce 02       		.byte	0x2
 2480 11cf 23       		.byte	0x23
 2481 11d0 14       		.uleb128 0x14
 2482 11d1 17       		.uleb128 0x17
 2483 11d2 FB060000 		.4byte	.LASF235
 2484 11d6 0E       		.byte	0xe
 2485 11d7 3B01     		.2byte	0x13b
 2486 11d9 05120000 		.4byte	0x1205
 2487 11dd 02       		.byte	0x2
 2488 11de 23       		.byte	0x23
 2489 11df 18       		.uleb128 0x18
 2490 11e0 17       		.uleb128 0x17
 2491 11e1 D0040000 		.4byte	.LASF236
 2492 11e5 0E       		.byte	0xe
 2493 11e6 4201     		.2byte	0x142
 2494 11e8 A0000000 		.4byte	0xa0
 2495 11ec 02       		.byte	0x2
 2496 11ed 23       		.byte	0x23
 2497 11ee 1C       		.uleb128 0x1c
 2498 11ef 17       		.uleb128 0x17
 2499 11f0 84060000 		.4byte	.LASF237
 2500 11f4 0E       		.byte	0xe
 2501 11f5 4801     		.2byte	0x148
 2502 11f7 59050000 		.4byte	0x559
 2503 11fb 02       		.byte	0x2
 2504 11fc 23       		.byte	0x23
ARM GAS  /tmp/cc3Asyhh.s 			page 45


 2505 11fd 20       		.uleb128 0x20
 2506 11fe 00       		.byte	0
 2507 11ff 06       		.uleb128 0x6
 2508 1200 04       		.byte	0x4
 2509 1201 B1100000 		.4byte	0x10b1
 2510 1205 06       		.uleb128 0x6
 2511 1206 04       		.byte	0x4
 2512 1207 53110000 		.4byte	0x1153
 2513 120b 1B       		.uleb128 0x1b
 2514 120c B2070000 		.4byte	.LASF238
 2515 1210 0E       		.byte	0xe
 2516 1211 4901     		.2byte	0x149
 2517 1213 5F110000 		.4byte	0x115f
 2518 1217 1A       		.uleb128 0x1a
 2519 1218 10       		.byte	0x10
 2520 1219 0E       		.byte	0xe
 2521 121a 4E01     		.2byte	0x14e
 2522 121c 5D120000 		.4byte	0x125d
 2523 1220 17       		.uleb128 0x17
 2524 1221 7C050000 		.4byte	.LASF239
 2525 1225 0E       		.byte	0xe
 2526 1226 5301     		.2byte	0x153
 2527 1228 85090000 		.4byte	0x985
 2528 122c 02       		.byte	0x2
 2529 122d 23       		.byte	0x23
 2530 122e 00       		.uleb128 0
 2531 122f 17       		.uleb128 0x17
 2532 1230 FE090000 		.4byte	.LASF240
 2533 1234 0E       		.byte	0xe
 2534 1235 5801     		.2byte	0x158
 2535 1237 CA090000 		.4byte	0x9ca
 2536 123b 02       		.byte	0x2
 2537 123c 23       		.byte	0x23
 2538 123d 04       		.uleb128 0x4
 2539 123e 17       		.uleb128 0x17
 2540 123f 87020000 		.4byte	.LASF241
 2541 1243 0E       		.byte	0xe
 2542 1244 5E01     		.2byte	0x15e
 2543 1246 A8090000 		.4byte	0x9a8
 2544 124a 02       		.byte	0x2
 2545 124b 23       		.byte	0x23
 2546 124c 08       		.uleb128 0x8
 2547 124d 17       		.uleb128 0x17
 2548 124e 60090000 		.4byte	.LASF242
 2549 1252 0E       		.byte	0xe
 2550 1253 6201     		.2byte	0x162
 2551 1255 3E090000 		.4byte	0x93e
 2552 1259 02       		.byte	0x2
 2553 125a 23       		.byte	0x23
 2554 125b 0C       		.uleb128 0xc
 2555 125c 00       		.byte	0
 2556 125d 1B       		.uleb128 0x1b
 2557 125e 4A060000 		.4byte	.LASF243
 2558 1262 0E       		.byte	0xe
 2559 1263 6401     		.2byte	0x164
 2560 1265 17120000 		.4byte	0x1217
 2561 1269 06       		.uleb128 0x6
ARM GAS  /tmp/cc3Asyhh.s 			page 46


 2562 126a 04       		.byte	0x4
 2563 126b 6F120000 		.4byte	0x126f
 2564 126f 07       		.uleb128 0x7
 2565 1270 5D120000 		.4byte	0x125d
 2566 1274 14       		.uleb128 0x14
 2567 1275 84120000 		.4byte	0x1284
 2568 1279 84120000 		.4byte	0x1284
 2569 127d 15       		.uleb128 0x15
 2570 127e 75000000 		.4byte	0x75
 2571 1282 03       		.byte	0x3
 2572 1283 00       		.byte	0
 2573 1284 06       		.uleb128 0x6
 2574 1285 04       		.byte	0x4
 2575 1286 8A120000 		.4byte	0x128a
 2576 128a 07       		.uleb128 0x7
 2577 128b 0B120000 		.4byte	0x120b
 2578 128f 14       		.uleb128 0x14
 2579 1290 95000000 		.4byte	0x95
 2580 1294 9F120000 		.4byte	0x129f
 2581 1298 15       		.uleb128 0x15
 2582 1299 75000000 		.4byte	0x75
 2583 129d 07       		.byte	0x7
 2584 129e 00       		.byte	0
 2585 129f 06       		.uleb128 0x6
 2586 12a0 04       		.byte	0x4
 2587 12a1 D40F0000 		.4byte	0xfd4
 2588 12a5 06       		.uleb128 0x6
 2589 12a6 04       		.byte	0x4
 2590 12a7 AB120000 		.4byte	0x12ab
 2591 12ab 07       		.uleb128 0x7
 2592 12ac 12100000 		.4byte	0x1012
 2593 12b0 14       		.uleb128 0x14
 2594 12b1 DB020000 		.4byte	0x2db
 2595 12b5 C0120000 		.4byte	0x12c0
 2596 12b9 15       		.uleb128 0x15
 2597 12ba 75000000 		.4byte	0x75
 2598 12be 25       		.byte	0x25
 2599 12bf 00       		.byte	0
 2600 12c0 18       		.uleb128 0x18
 2601 12c1 01       		.byte	0x1
 2602 12c2 10       		.byte	0x10
 2603 12c3 4A       		.byte	0x4a
 2604 12c4 DB120000 		.4byte	0x12db
 2605 12c8 19       		.uleb128 0x19
 2606 12c9 F6080000 		.4byte	.LASF244
 2607 12cd 00       		.sleb128 0
 2608 12ce 19       		.uleb128 0x19
 2609 12cf A9090000 		.4byte	.LASF245
 2610 12d3 01       		.sleb128 1
 2611 12d4 19       		.uleb128 0x19
 2612 12d5 08050000 		.4byte	.LASF246
 2613 12d9 02       		.sleb128 2
 2614 12da 00       		.byte	0
 2615 12db 02       		.uleb128 0x2
 2616 12dc 54060000 		.4byte	.LASF247
 2617 12e0 10       		.byte	0x10
 2618 12e1 4E       		.byte	0x4e
ARM GAS  /tmp/cc3Asyhh.s 			page 47


 2619 12e2 C0120000 		.4byte	0x12c0
 2620 12e6 02       		.uleb128 0x2
 2621 12e7 05070000 		.4byte	.LASF248
 2622 12eb 10       		.byte	0x10
 2623 12ec 53       		.byte	0x53
 2624 12ed F1120000 		.4byte	0x12f1
 2625 12f1 1F       		.uleb128 0x1f
 2626 12f2 05070000 		.4byte	.LASF248
 2627 12f6 5C02     		.2byte	0x25c
 2628 12f8 10       		.byte	0x10
 2629 12f9 8A       		.byte	0x8a
 2630 12fa 7D130000 		.4byte	0x137d
 2631 12fe 0A       		.uleb128 0xa
 2632 12ff 766D7400 		.ascii	"vmt\000"
 2633 1303 10       		.byte	0x10
 2634 1304 8C       		.byte	0x8c
 2635 1305 2A140000 		.4byte	0x142a
 2636 1309 02       		.byte	0x2
 2637 130a 23       		.byte	0x23
 2638 130b 00       		.uleb128 0
 2639 130c 09       		.uleb128 0x9
 2640 130d 1B060000 		.4byte	.LASF249
 2641 1311 10       		.byte	0x10
 2642 1312 8D       		.byte	0x8d
 2643 1313 4C040000 		.4byte	0x44c
 2644 1317 02       		.byte	0x2
 2645 1318 23       		.byte	0x23
 2646 1319 04       		.uleb128 0x4
 2647 131a 09       		.uleb128 0x9
 2648 131b 2C030000 		.4byte	.LASF250
 2649 131f 10       		.byte	0x10
 2650 1320 8D       		.byte	0x8d
 2651 1321 E7060000 		.4byte	0x6e7
 2652 1325 02       		.byte	0x2
 2653 1326 23       		.byte	0x23
 2654 1327 08       		.uleb128 0x8
 2655 1328 09       		.uleb128 0x9
 2656 1329 8F000000 		.4byte	.LASF86
 2657 132d 10       		.byte	0x10
 2658 132e 8D       		.byte	0x8d
 2659 132f DB120000 		.4byte	0x12db
 2660 1333 02       		.byte	0x2
 2661 1334 23       		.byte	0x23
 2662 1335 0C       		.uleb128 0xc
 2663 1336 09       		.uleb128 0x9
 2664 1337 C1050000 		.4byte	.LASF251
 2665 133b 10       		.byte	0x10
 2666 133c 8D       		.byte	0x8d
 2667 133d 5F050000 		.4byte	0x55f
 2668 1341 02       		.byte	0x2
 2669 1342 23       		.byte	0x23
 2670 1343 10       		.uleb128 0x10
 2671 1344 09       		.uleb128 0x9
 2672 1345 90080000 		.4byte	.LASF252
 2673 1349 10       		.byte	0x10
 2674 134a 8D       		.byte	0x8d
 2675 134b 6A050000 		.4byte	0x56a
ARM GAS  /tmp/cc3Asyhh.s 			page 48


 2676 134f 02       		.byte	0x2
 2677 1350 23       		.byte	0x23
 2678 1351 34       		.uleb128 0x34
 2679 1352 0A       		.uleb128 0xa
 2680 1353 696200   		.ascii	"ib\000"
 2681 1356 10       		.byte	0x10
 2682 1357 8D       		.byte	0x8d
 2683 1358 35140000 		.4byte	0x1435
 2684 135c 02       		.byte	0x2
 2685 135d 23       		.byte	0x23
 2686 135e 58       		.uleb128 0x58
 2687 135f 0A       		.uleb128 0xa
 2688 1360 6F6200   		.ascii	"ob\000"
 2689 1363 10       		.byte	0x10
 2690 1364 8D       		.byte	0x8d
 2691 1365 35140000 		.4byte	0x1435
 2692 1369 03       		.byte	0x3
 2693 136a 23       		.byte	0x23
 2694 136b D802     		.uleb128 0x158
 2695 136d 09       		.uleb128 0x9
 2696 136e 88000000 		.4byte	.LASF87
 2697 1372 10       		.byte	0x10
 2698 1373 8D       		.byte	0x8d
 2699 1374 45140000 		.4byte	0x1445
 2700 1378 03       		.byte	0x3
 2701 1379 23       		.byte	0x23
 2702 137a D804     		.uleb128 0x258
 2703 137c 00       		.byte	0
 2704 137d 0B       		.uleb128 0xb
 2705 137e 04       		.byte	0x4
 2706 137f 10       		.byte	0x10
 2707 1380 5A       		.byte	0x5a
 2708 1381 94130000 		.4byte	0x1394
 2709 1385 09       		.uleb128 0x9
 2710 1386 E6040000 		.4byte	.LASF253
 2711 138a 10       		.byte	0x10
 2712 138b 5E       		.byte	0x5e
 2713 138c 5C090000 		.4byte	0x95c
 2714 1390 02       		.byte	0x2
 2715 1391 23       		.byte	0x23
 2716 1392 00       		.uleb128 0
 2717 1393 00       		.byte	0
 2718 1394 02       		.uleb128 0x2
 2719 1395 B5060000 		.4byte	.LASF254
 2720 1399 10       		.byte	0x10
 2721 139a 5F       		.byte	0x5f
 2722 139b 7D130000 		.4byte	0x137d
 2723 139f 08       		.uleb128 0x8
 2724 13a0 33040000 		.4byte	.LASF255
 2725 13a4 24       		.byte	0x24
 2726 13a5 10       		.byte	0x10
 2727 13a6 7F       		.byte	0x7f
 2728 13a7 2A140000 		.4byte	0x142a
 2729 13ab 09       		.uleb128 0x9
 2730 13ac 64000000 		.4byte	.LASF81
 2731 13b0 10       		.byte	0x10
 2732 13b1 80       		.byte	0x80
ARM GAS  /tmp/cc3Asyhh.s 			page 49


 2733 13b2 DF050000 		.4byte	0x5df
 2734 13b6 02       		.byte	0x2
 2735 13b7 23       		.byte	0x23
 2736 13b8 00       		.uleb128 0
 2737 13b9 09       		.uleb128 0x9
 2738 13ba 32060000 		.4byte	.LASF82
 2739 13be 10       		.byte	0x10
 2740 13bf 80       		.byte	0x80
 2741 13c0 FF050000 		.4byte	0x5ff
 2742 13c4 02       		.byte	0x2
 2743 13c5 23       		.byte	0x23
 2744 13c6 04       		.uleb128 0x4
 2745 13c7 0A       		.uleb128 0xa
 2746 13c8 70757400 		.ascii	"put\000"
 2747 13cc 10       		.byte	0x10
 2748 13cd 80       		.byte	0x80
 2749 13ce 1A060000 		.4byte	0x61a
 2750 13d2 02       		.byte	0x2
 2751 13d3 23       		.byte	0x23
 2752 13d4 08       		.uleb128 0x8
 2753 13d5 0A       		.uleb128 0xa
 2754 13d6 67657400 		.ascii	"get\000"
 2755 13da 10       		.byte	0x10
 2756 13db 80       		.byte	0x80
 2757 13dc 98040000 		.4byte	0x498
 2758 13e0 02       		.byte	0x2
 2759 13e1 23       		.byte	0x23
 2760 13e2 0C       		.uleb128 0xc
 2761 13e3 09       		.uleb128 0x9
 2762 13e4 9D000000 		.4byte	.LASF256
 2763 13e8 10       		.byte	0x10
 2764 13e9 80       		.byte	0x80
 2765 13ea 7C060000 		.4byte	0x67c
 2766 13ee 02       		.byte	0x2
 2767 13ef 23       		.byte	0x23
 2768 13f0 10       		.uleb128 0x10
 2769 13f1 09       		.uleb128 0x9
 2770 13f2 38030000 		.4byte	.LASF257
 2771 13f6 10       		.byte	0x10
 2772 13f7 80       		.byte	0x80
 2773 13f8 97060000 		.4byte	0x697
 2774 13fc 02       		.byte	0x2
 2775 13fd 23       		.byte	0x23
 2776 13fe 14       		.uleb128 0x14
 2777 13ff 09       		.uleb128 0x9
 2778 1400 48000000 		.4byte	.LASF258
 2779 1404 10       		.byte	0x10
 2780 1405 80       		.byte	0x80
 2781 1406 BC060000 		.4byte	0x6bc
 2782 140a 02       		.byte	0x2
 2783 140b 23       		.byte	0x23
 2784 140c 18       		.uleb128 0x18
 2785 140d 09       		.uleb128 0x9
 2786 140e D9000000 		.4byte	.LASF259
 2787 1412 10       		.byte	0x10
 2788 1413 80       		.byte	0x80
 2789 1414 E1060000 		.4byte	0x6e1
ARM GAS  /tmp/cc3Asyhh.s 			page 50


 2790 1418 02       		.byte	0x2
 2791 1419 23       		.byte	0x23
 2792 141a 1C       		.uleb128 0x1c
 2793 141b 09       		.uleb128 0x9
 2794 141c 3E090000 		.4byte	.LASF260
 2795 1420 10       		.byte	0x10
 2796 1421 80       		.byte	0x80
 2797 1422 02070000 		.4byte	0x702
 2798 1426 02       		.byte	0x2
 2799 1427 23       		.byte	0x23
 2800 1428 20       		.uleb128 0x20
 2801 1429 00       		.byte	0
 2802 142a 06       		.uleb128 0x6
 2803 142b 04       		.byte	0x4
 2804 142c 30140000 		.4byte	0x1430
 2805 1430 07       		.uleb128 0x7
 2806 1431 9F130000 		.4byte	0x139f
 2807 1435 14       		.uleb128 0x14
 2808 1436 95000000 		.4byte	0x95
 2809 143a 45140000 		.4byte	0x1445
 2810 143e 15       		.uleb128 0x15
 2811 143f 75000000 		.4byte	0x75
 2812 1443 FF       		.byte	0xff
 2813 1444 00       		.byte	0
 2814 1445 06       		.uleb128 0x6
 2815 1446 04       		.byte	0x4
 2816 1447 4B140000 		.4byte	0x144b
 2817 144b 07       		.uleb128 0x7
 2818 144c 94130000 		.4byte	0x1394
 2819 1450 06       		.uleb128 0x6
 2820 1451 04       		.byte	0x4
 2821 1452 42060000 		.4byte	0x642
 2822 1456 20       		.uleb128 0x20
 2823 1457 01       		.byte	0x1
 2824 1458 4C010000 		.4byte	.LASF269
 2825 145c 01       		.byte	0x1
 2826 145d 18       		.byte	0x18
 2827 145e 01       		.byte	0x1
 2828 145f 59000000 		.4byte	0x59
 2829 1463 00000000 		.4byte	.LFB118
 2830 1467 2C000000 		.4byte	.LFE118
 2831 146b 00000000 		.4byte	.LLST0
 2832 146f 01       		.byte	0x1
 2833 1470 DB140000 		.4byte	0x14db
 2834 1474 21       		.uleb128 0x21
 2835 1475 63687000 		.ascii	"chp\000"
 2836 1479 01       		.byte	0x1
 2837 147a 2C       		.byte	0x2c
 2838 147b 50140000 		.4byte	0x1450
 2839 147f 22       		.uleb128 0x22
 2840 1480 6A00     		.ascii	"j\000"
 2841 1482 01       		.byte	0x1
 2842 1483 2E       		.byte	0x2e
 2843 1484 DB140000 		.4byte	0x14db
 2844 1488 05       		.byte	0x5
 2845 1489 03       		.byte	0x3
 2846 148a 00000000 		.4byte	j.8599
ARM GAS  /tmp/cc3Asyhh.s 			page 51


 2847 148e 23       		.uleb128 0x23
 2848 148f 06000000 		.4byte	.LVL0
 2849 1493 06150000 		.4byte	0x1506
 2850 1497 23       		.uleb128 0x23
 2851 1498 0A000000 		.4byte	.LVL1
 2852 149c 10150000 		.4byte	0x1510
 2853 14a0 23       		.uleb128 0x23
 2854 14a1 0E000000 		.4byte	.LVL2
 2855 14a5 1A150000 		.4byte	0x151a
 2856 14a9 24       		.uleb128 0x24
 2857 14aa 18000000 		.4byte	.LVL3
 2858 14ae 24150000 		.4byte	0x1524
 2859 14b2 BE140000 		.4byte	0x14be
 2860 14b6 25       		.uleb128 0x25
 2861 14b7 01       		.byte	0x1
 2862 14b8 50       		.byte	0x50
 2863 14b9 03       		.byte	0x3
 2864 14ba 0A       		.byte	0xa
 2865 14bb E803     		.2byte	0x3e8
 2866 14bd 00       		.byte	0
 2867 14be 23       		.uleb128 0x23
 2868 14bf 1C000000 		.4byte	.LVL4
 2869 14c3 39150000 		.4byte	0x1539
 2870 14c7 26       		.uleb128 0x26
 2871 14c8 26000000 		.4byte	.LVL5
 2872 14cc 47150000 		.4byte	0x1547
 2873 14d0 25       		.uleb128 0x25
 2874 14d1 01       		.byte	0x1
 2875 14d2 50       		.byte	0x50
 2876 14d3 05       		.byte	0x5
 2877 14d4 03       		.byte	0x3
 2878 14d5 00000000 		.4byte	.LANCHOR0
 2879 14d9 00       		.byte	0
 2880 14da 00       		.byte	0
 2881 14db 14       		.uleb128 0x14
 2882 14dc 95000000 		.4byte	0x95
 2883 14e0 EB140000 		.4byte	0x14eb
 2884 14e4 15       		.uleb128 0x15
 2885 14e5 75000000 		.4byte	0x75
 2886 14e9 10       		.byte	0x10
 2887 14ea 00       		.byte	0
 2888 14eb 27       		.uleb128 0x27
 2889 14ec F1050000 		.4byte	.LASF261
 2890 14f0 11       		.byte	0x11
 2891 14f1 9806     		.2byte	0x698
 2892 14f3 5D060000 		.4byte	0x65d
 2893 14f7 01       		.byte	0x1
 2894 14f8 01       		.byte	0x1
 2895 14f9 28       		.uleb128 0x28
 2896 14fa A3050000 		.4byte	.LASF262
 2897 14fe 12       		.byte	0x12
 2898 14ff 03       		.byte	0x3
 2899 1500 E6120000 		.4byte	0x12e6
 2900 1504 01       		.byte	0x1
 2901 1505 01       		.byte	0x1
 2902 1506 29       		.uleb128 0x29
 2903 1507 01       		.byte	0x1
ARM GAS  /tmp/cc3Asyhh.s 			page 52


 2904 1508 1A050000 		.4byte	.LASF263
 2905 150c 13       		.byte	0x13
 2906 150d C8       		.byte	0xc8
 2907 150e 01       		.byte	0x1
 2908 150f 01       		.byte	0x1
 2909 1510 29       		.uleb128 0x29
 2910 1511 01       		.byte	0x1
 2911 1512 8E090000 		.4byte	.LASF264
 2912 1516 14       		.byte	0x14
 2913 1517 EF       		.byte	0xef
 2914 1518 01       		.byte	0x1
 2915 1519 01       		.byte	0x1
 2916 151a 29       		.uleb128 0x29
 2917 151b 01       		.byte	0x1
 2918 151c 32010000 		.4byte	.LASF265
 2919 1520 12       		.byte	0x12
 2920 1521 05       		.byte	0x5
 2921 1522 01       		.byte	0x1
 2922 1523 01       		.byte	0x1
 2923 1524 2A       		.uleb128 0x2a
 2924 1525 01       		.byte	0x1
 2925 1526 C0030000 		.4byte	.LASF270
 2926 152a 06       		.byte	0x6
 2927 152b 6901     		.2byte	0x169
 2928 152d 01       		.byte	0x1
 2929 152e 01       		.byte	0x1
 2930 152f 39150000 		.4byte	0x1539
 2931 1533 12       		.uleb128 0x12
 2932 1534 2F010000 		.4byte	0x12f
 2933 1538 00       		.byte	0
 2934 1539 2B       		.uleb128 0x2b
 2935 153a 01       		.byte	0x1
 2936 153b 2A070000 		.4byte	.LASF271
 2937 153f 12       		.byte	0x12
 2938 1540 06       		.byte	0x6
 2939 1541 01       		.byte	0x1
 2940 1542 59000000 		.4byte	0x59
 2941 1546 01       		.byte	0x1
 2942 1547 2C       		.uleb128 0x2c
 2943 1548 01       		.byte	0x1
 2944 1549 86080000 		.4byte	.LASF272
 2945 154d 12       		.byte	0x12
 2946 154e 08       		.byte	0x8
 2947 154f 01       		.byte	0x1
 2948 1550 01       		.byte	0x1
 2949 1551 12       		.uleb128 0x12
 2950 1552 59050000 		.4byte	0x559
 2951 1556 00       		.byte	0
 2952 1557 00       		.byte	0
 2953              		.section	.debug_abbrev,"",%progbits
 2954              	.Ldebug_abbrev0:
 2955 0000 01       		.uleb128 0x1
 2956 0001 11       		.uleb128 0x11
 2957 0002 01       		.byte	0x1
 2958 0003 25       		.uleb128 0x25
 2959 0004 0E       		.uleb128 0xe
 2960 0005 13       		.uleb128 0x13
ARM GAS  /tmp/cc3Asyhh.s 			page 53


 2961 0006 0B       		.uleb128 0xb
 2962 0007 03       		.uleb128 0x3
 2963 0008 0E       		.uleb128 0xe
 2964 0009 1B       		.uleb128 0x1b
 2965 000a 0E       		.uleb128 0xe
 2966 000b 55       		.uleb128 0x55
 2967 000c 06       		.uleb128 0x6
 2968 000d 11       		.uleb128 0x11
 2969 000e 01       		.uleb128 0x1
 2970 000f 52       		.uleb128 0x52
 2971 0010 01       		.uleb128 0x1
 2972 0011 10       		.uleb128 0x10
 2973 0012 06       		.uleb128 0x6
 2974 0013 00       		.byte	0
 2975 0014 00       		.byte	0
 2976 0015 02       		.uleb128 0x2
 2977 0016 16       		.uleb128 0x16
 2978 0017 00       		.byte	0
 2979 0018 03       		.uleb128 0x3
 2980 0019 0E       		.uleb128 0xe
 2981 001a 3A       		.uleb128 0x3a
 2982 001b 0B       		.uleb128 0xb
 2983 001c 3B       		.uleb128 0x3b
 2984 001d 0B       		.uleb128 0xb
 2985 001e 49       		.uleb128 0x49
 2986 001f 13       		.uleb128 0x13
 2987 0020 00       		.byte	0
 2988 0021 00       		.byte	0
 2989 0022 03       		.uleb128 0x3
 2990 0023 24       		.uleb128 0x24
 2991 0024 00       		.byte	0
 2992 0025 0B       		.uleb128 0xb
 2993 0026 0B       		.uleb128 0xb
 2994 0027 3E       		.uleb128 0x3e
 2995 0028 0B       		.uleb128 0xb
 2996 0029 03       		.uleb128 0x3
 2997 002a 0E       		.uleb128 0xe
 2998 002b 00       		.byte	0
 2999 002c 00       		.byte	0
 3000 002d 04       		.uleb128 0x4
 3001 002e 0F       		.uleb128 0xf
 3002 002f 00       		.byte	0
 3003 0030 0B       		.uleb128 0xb
 3004 0031 0B       		.uleb128 0xb
 3005 0032 00       		.byte	0
 3006 0033 00       		.byte	0
 3007 0034 05       		.uleb128 0x5
 3008 0035 24       		.uleb128 0x24
 3009 0036 00       		.byte	0
 3010 0037 0B       		.uleb128 0xb
 3011 0038 0B       		.uleb128 0xb
 3012 0039 3E       		.uleb128 0x3e
 3013 003a 0B       		.uleb128 0xb
 3014 003b 03       		.uleb128 0x3
 3015 003c 08       		.uleb128 0x8
 3016 003d 00       		.byte	0
 3017 003e 00       		.byte	0
ARM GAS  /tmp/cc3Asyhh.s 			page 54


 3018 003f 06       		.uleb128 0x6
 3019 0040 0F       		.uleb128 0xf
 3020 0041 00       		.byte	0
 3021 0042 0B       		.uleb128 0xb
 3022 0043 0B       		.uleb128 0xb
 3023 0044 49       		.uleb128 0x49
 3024 0045 13       		.uleb128 0x13
 3025 0046 00       		.byte	0
 3026 0047 00       		.byte	0
 3027 0048 07       		.uleb128 0x7
 3028 0049 26       		.uleb128 0x26
 3029 004a 00       		.byte	0
 3030 004b 49       		.uleb128 0x49
 3031 004c 13       		.uleb128 0x13
 3032 004d 00       		.byte	0
 3033 004e 00       		.byte	0
 3034 004f 08       		.uleb128 0x8
 3035 0050 13       		.uleb128 0x13
 3036 0051 01       		.byte	0x1
 3037 0052 03       		.uleb128 0x3
 3038 0053 0E       		.uleb128 0xe
 3039 0054 0B       		.uleb128 0xb
 3040 0055 0B       		.uleb128 0xb
 3041 0056 3A       		.uleb128 0x3a
 3042 0057 0B       		.uleb128 0xb
 3043 0058 3B       		.uleb128 0x3b
 3044 0059 0B       		.uleb128 0xb
 3045 005a 01       		.uleb128 0x1
 3046 005b 13       		.uleb128 0x13
 3047 005c 00       		.byte	0
 3048 005d 00       		.byte	0
 3049 005e 09       		.uleb128 0x9
 3050 005f 0D       		.uleb128 0xd
 3051 0060 00       		.byte	0
 3052 0061 03       		.uleb128 0x3
 3053 0062 0E       		.uleb128 0xe
 3054 0063 3A       		.uleb128 0x3a
 3055 0064 0B       		.uleb128 0xb
 3056 0065 3B       		.uleb128 0x3b
 3057 0066 0B       		.uleb128 0xb
 3058 0067 49       		.uleb128 0x49
 3059 0068 13       		.uleb128 0x13
 3060 0069 38       		.uleb128 0x38
 3061 006a 0A       		.uleb128 0xa
 3062 006b 00       		.byte	0
 3063 006c 00       		.byte	0
 3064 006d 0A       		.uleb128 0xa
 3065 006e 0D       		.uleb128 0xd
 3066 006f 00       		.byte	0
 3067 0070 03       		.uleb128 0x3
 3068 0071 08       		.uleb128 0x8
 3069 0072 3A       		.uleb128 0x3a
 3070 0073 0B       		.uleb128 0xb
 3071 0074 3B       		.uleb128 0x3b
 3072 0075 0B       		.uleb128 0xb
 3073 0076 49       		.uleb128 0x49
 3074 0077 13       		.uleb128 0x13
ARM GAS  /tmp/cc3Asyhh.s 			page 55


 3075 0078 38       		.uleb128 0x38
 3076 0079 0A       		.uleb128 0xa
 3077 007a 00       		.byte	0
 3078 007b 00       		.byte	0
 3079 007c 0B       		.uleb128 0xb
 3080 007d 13       		.uleb128 0x13
 3081 007e 01       		.byte	0x1
 3082 007f 0B       		.uleb128 0xb
 3083 0080 0B       		.uleb128 0xb
 3084 0081 3A       		.uleb128 0x3a
 3085 0082 0B       		.uleb128 0xb
 3086 0083 3B       		.uleb128 0x3b
 3087 0084 0B       		.uleb128 0xb
 3088 0085 01       		.uleb128 0x1
 3089 0086 13       		.uleb128 0x13
 3090 0087 00       		.byte	0
 3091 0088 00       		.byte	0
 3092 0089 0C       		.uleb128 0xc
 3093 008a 13       		.uleb128 0x13
 3094 008b 01       		.byte	0x1
 3095 008c 03       		.uleb128 0x3
 3096 008d 0E       		.uleb128 0xe
 3097 008e 0B       		.uleb128 0xb
 3098 008f 0B       		.uleb128 0xb
 3099 0090 3A       		.uleb128 0x3a
 3100 0091 0B       		.uleb128 0xb
 3101 0092 3B       		.uleb128 0x3b
 3102 0093 05       		.uleb128 0x5
 3103 0094 01       		.uleb128 0x1
 3104 0095 13       		.uleb128 0x13
 3105 0096 00       		.byte	0
 3106 0097 00       		.byte	0
 3107 0098 0D       		.uleb128 0xd
 3108 0099 0D       		.uleb128 0xd
 3109 009a 00       		.byte	0
 3110 009b 03       		.uleb128 0x3
 3111 009c 08       		.uleb128 0x8
 3112 009d 3A       		.uleb128 0x3a
 3113 009e 0B       		.uleb128 0xb
 3114 009f 3B       		.uleb128 0x3b
 3115 00a0 05       		.uleb128 0x5
 3116 00a1 49       		.uleb128 0x49
 3117 00a2 13       		.uleb128 0x13
 3118 00a3 38       		.uleb128 0x38
 3119 00a4 0A       		.uleb128 0xa
 3120 00a5 00       		.byte	0
 3121 00a6 00       		.byte	0
 3122 00a7 0E       		.uleb128 0xe
 3123 00a8 35       		.uleb128 0x35
 3124 00a9 00       		.byte	0
 3125 00aa 49       		.uleb128 0x49
 3126 00ab 13       		.uleb128 0x13
 3127 00ac 00       		.byte	0
 3128 00ad 00       		.byte	0
 3129 00ae 0F       		.uleb128 0xf
 3130 00af 17       		.uleb128 0x17
 3131 00b0 01       		.byte	0x1
ARM GAS  /tmp/cc3Asyhh.s 			page 56


 3132 00b1 0B       		.uleb128 0xb
 3133 00b2 0B       		.uleb128 0xb
 3134 00b3 3A       		.uleb128 0x3a
 3135 00b4 0B       		.uleb128 0xb
 3136 00b5 3B       		.uleb128 0x3b
 3137 00b6 0B       		.uleb128 0xb
 3138 00b7 01       		.uleb128 0x1
 3139 00b8 13       		.uleb128 0x13
 3140 00b9 00       		.byte	0
 3141 00ba 00       		.byte	0
 3142 00bb 10       		.uleb128 0x10
 3143 00bc 0D       		.uleb128 0xd
 3144 00bd 00       		.byte	0
 3145 00be 03       		.uleb128 0x3
 3146 00bf 0E       		.uleb128 0xe
 3147 00c0 3A       		.uleb128 0x3a
 3148 00c1 0B       		.uleb128 0xb
 3149 00c2 3B       		.uleb128 0x3b
 3150 00c3 0B       		.uleb128 0xb
 3151 00c4 49       		.uleb128 0x49
 3152 00c5 13       		.uleb128 0x13
 3153 00c6 00       		.byte	0
 3154 00c7 00       		.byte	0
 3155 00c8 11       		.uleb128 0x11
 3156 00c9 15       		.uleb128 0x15
 3157 00ca 01       		.byte	0x1
 3158 00cb 27       		.uleb128 0x27
 3159 00cc 0C       		.uleb128 0xc
 3160 00cd 49       		.uleb128 0x49
 3161 00ce 13       		.uleb128 0x13
 3162 00cf 01       		.uleb128 0x1
 3163 00d0 13       		.uleb128 0x13
 3164 00d1 00       		.byte	0
 3165 00d2 00       		.byte	0
 3166 00d3 12       		.uleb128 0x12
 3167 00d4 05       		.uleb128 0x5
 3168 00d5 00       		.byte	0
 3169 00d6 49       		.uleb128 0x49
 3170 00d7 13       		.uleb128 0x13
 3171 00d8 00       		.byte	0
 3172 00d9 00       		.byte	0
 3173 00da 13       		.uleb128 0x13
 3174 00db 15       		.uleb128 0x15
 3175 00dc 01       		.byte	0x1
 3176 00dd 27       		.uleb128 0x27
 3177 00de 0C       		.uleb128 0xc
 3178 00df 01       		.uleb128 0x1
 3179 00e0 13       		.uleb128 0x13
 3180 00e1 00       		.byte	0
 3181 00e2 00       		.byte	0
 3182 00e3 14       		.uleb128 0x14
 3183 00e4 01       		.uleb128 0x1
 3184 00e5 01       		.byte	0x1
 3185 00e6 49       		.uleb128 0x49
 3186 00e7 13       		.uleb128 0x13
 3187 00e8 01       		.uleb128 0x1
 3188 00e9 13       		.uleb128 0x13
ARM GAS  /tmp/cc3Asyhh.s 			page 57


 3189 00ea 00       		.byte	0
 3190 00eb 00       		.byte	0
 3191 00ec 15       		.uleb128 0x15
 3192 00ed 21       		.uleb128 0x21
 3193 00ee 00       		.byte	0
 3194 00ef 49       		.uleb128 0x49
 3195 00f0 13       		.uleb128 0x13
 3196 00f1 2F       		.uleb128 0x2f
 3197 00f2 0B       		.uleb128 0xb
 3198 00f3 00       		.byte	0
 3199 00f4 00       		.byte	0
 3200 00f5 16       		.uleb128 0x16
 3201 00f6 13       		.uleb128 0x13
 3202 00f7 01       		.byte	0x1
 3203 00f8 03       		.uleb128 0x3
 3204 00f9 0E       		.uleb128 0xe
 3205 00fa 0B       		.uleb128 0xb
 3206 00fb 05       		.uleb128 0x5
 3207 00fc 3A       		.uleb128 0x3a
 3208 00fd 0B       		.uleb128 0xb
 3209 00fe 3B       		.uleb128 0x3b
 3210 00ff 05       		.uleb128 0x5
 3211 0100 01       		.uleb128 0x1
 3212 0101 13       		.uleb128 0x13
 3213 0102 00       		.byte	0
 3214 0103 00       		.byte	0
 3215 0104 17       		.uleb128 0x17
 3216 0105 0D       		.uleb128 0xd
 3217 0106 00       		.byte	0
 3218 0107 03       		.uleb128 0x3
 3219 0108 0E       		.uleb128 0xe
 3220 0109 3A       		.uleb128 0x3a
 3221 010a 0B       		.uleb128 0xb
 3222 010b 3B       		.uleb128 0x3b
 3223 010c 05       		.uleb128 0x5
 3224 010d 49       		.uleb128 0x49
 3225 010e 13       		.uleb128 0x13
 3226 010f 38       		.uleb128 0x38
 3227 0110 0A       		.uleb128 0xa
 3228 0111 00       		.byte	0
 3229 0112 00       		.byte	0
 3230 0113 18       		.uleb128 0x18
 3231 0114 04       		.uleb128 0x4
 3232 0115 01       		.byte	0x1
 3233 0116 0B       		.uleb128 0xb
 3234 0117 0B       		.uleb128 0xb
 3235 0118 3A       		.uleb128 0x3a
 3236 0119 0B       		.uleb128 0xb
 3237 011a 3B       		.uleb128 0x3b
 3238 011b 0B       		.uleb128 0xb
 3239 011c 01       		.uleb128 0x1
 3240 011d 13       		.uleb128 0x13
 3241 011e 00       		.byte	0
 3242 011f 00       		.byte	0
 3243 0120 19       		.uleb128 0x19
 3244 0121 28       		.uleb128 0x28
 3245 0122 00       		.byte	0
ARM GAS  /tmp/cc3Asyhh.s 			page 58


 3246 0123 03       		.uleb128 0x3
 3247 0124 0E       		.uleb128 0xe
 3248 0125 1C       		.uleb128 0x1c
 3249 0126 0D       		.uleb128 0xd
 3250 0127 00       		.byte	0
 3251 0128 00       		.byte	0
 3252 0129 1A       		.uleb128 0x1a
 3253 012a 13       		.uleb128 0x13
 3254 012b 01       		.byte	0x1
 3255 012c 0B       		.uleb128 0xb
 3256 012d 0B       		.uleb128 0xb
 3257 012e 3A       		.uleb128 0x3a
 3258 012f 0B       		.uleb128 0xb
 3259 0130 3B       		.uleb128 0x3b
 3260 0131 05       		.uleb128 0x5
 3261 0132 01       		.uleb128 0x1
 3262 0133 13       		.uleb128 0x13
 3263 0134 00       		.byte	0
 3264 0135 00       		.byte	0
 3265 0136 1B       		.uleb128 0x1b
 3266 0137 16       		.uleb128 0x16
 3267 0138 00       		.byte	0
 3268 0139 03       		.uleb128 0x3
 3269 013a 0E       		.uleb128 0xe
 3270 013b 3A       		.uleb128 0x3a
 3271 013c 0B       		.uleb128 0xb
 3272 013d 3B       		.uleb128 0x3b
 3273 013e 05       		.uleb128 0x5
 3274 013f 49       		.uleb128 0x49
 3275 0140 13       		.uleb128 0x13
 3276 0141 00       		.byte	0
 3277 0142 00       		.byte	0
 3278 0143 1C       		.uleb128 0x1c
 3279 0144 13       		.uleb128 0x13
 3280 0145 01       		.byte	0x1
 3281 0146 0B       		.uleb128 0xb
 3282 0147 06       		.uleb128 0x6
 3283 0148 3A       		.uleb128 0x3a
 3284 0149 0B       		.uleb128 0xb
 3285 014a 3B       		.uleb128 0x3b
 3286 014b 0B       		.uleb128 0xb
 3287 014c 01       		.uleb128 0x1
 3288 014d 13       		.uleb128 0x13
 3289 014e 00       		.byte	0
 3290 014f 00       		.byte	0
 3291 0150 1D       		.uleb128 0x1d
 3292 0151 21       		.uleb128 0x21
 3293 0152 00       		.byte	0
 3294 0153 49       		.uleb128 0x49
 3295 0154 13       		.uleb128 0x13
 3296 0155 2F       		.uleb128 0x2f
 3297 0156 05       		.uleb128 0x5
 3298 0157 00       		.byte	0
 3299 0158 00       		.byte	0
 3300 0159 1E       		.uleb128 0x1e
 3301 015a 0D       		.uleb128 0xd
 3302 015b 00       		.byte	0
ARM GAS  /tmp/cc3Asyhh.s 			page 59


 3303 015c 03       		.uleb128 0x3
 3304 015d 0E       		.uleb128 0xe
 3305 015e 3A       		.uleb128 0x3a
 3306 015f 0B       		.uleb128 0xb
 3307 0160 3B       		.uleb128 0x3b
 3308 0161 05       		.uleb128 0x5
 3309 0162 49       		.uleb128 0x49
 3310 0163 13       		.uleb128 0x13
 3311 0164 00       		.byte	0
 3312 0165 00       		.byte	0
 3313 0166 1F       		.uleb128 0x1f
 3314 0167 13       		.uleb128 0x13
 3315 0168 01       		.byte	0x1
 3316 0169 03       		.uleb128 0x3
 3317 016a 0E       		.uleb128 0xe
 3318 016b 0B       		.uleb128 0xb
 3319 016c 05       		.uleb128 0x5
 3320 016d 3A       		.uleb128 0x3a
 3321 016e 0B       		.uleb128 0xb
 3322 016f 3B       		.uleb128 0x3b
 3323 0170 0B       		.uleb128 0xb
 3324 0171 01       		.uleb128 0x1
 3325 0172 13       		.uleb128 0x13
 3326 0173 00       		.byte	0
 3327 0174 00       		.byte	0
 3328 0175 20       		.uleb128 0x20
 3329 0176 2E       		.uleb128 0x2e
 3330 0177 01       		.byte	0x1
 3331 0178 3F       		.uleb128 0x3f
 3332 0179 0C       		.uleb128 0xc
 3333 017a 03       		.uleb128 0x3
 3334 017b 0E       		.uleb128 0xe
 3335 017c 3A       		.uleb128 0x3a
 3336 017d 0B       		.uleb128 0xb
 3337 017e 3B       		.uleb128 0x3b
 3338 017f 0B       		.uleb128 0xb
 3339 0180 27       		.uleb128 0x27
 3340 0181 0C       		.uleb128 0xc
 3341 0182 49       		.uleb128 0x49
 3342 0183 13       		.uleb128 0x13
 3343 0184 11       		.uleb128 0x11
 3344 0185 01       		.uleb128 0x1
 3345 0186 12       		.uleb128 0x12
 3346 0187 01       		.uleb128 0x1
 3347 0188 40       		.uleb128 0x40
 3348 0189 06       		.uleb128 0x6
 3349 018a 9742     		.uleb128 0x2117
 3350 018c 0C       		.uleb128 0xc
 3351 018d 01       		.uleb128 0x1
 3352 018e 13       		.uleb128 0x13
 3353 018f 00       		.byte	0
 3354 0190 00       		.byte	0
 3355 0191 21       		.uleb128 0x21
 3356 0192 34       		.uleb128 0x34
 3357 0193 00       		.byte	0
 3358 0194 03       		.uleb128 0x3
 3359 0195 08       		.uleb128 0x8
ARM GAS  /tmp/cc3Asyhh.s 			page 60


 3360 0196 3A       		.uleb128 0x3a
 3361 0197 0B       		.uleb128 0xb
 3362 0198 3B       		.uleb128 0x3b
 3363 0199 0B       		.uleb128 0xb
 3364 019a 49       		.uleb128 0x49
 3365 019b 13       		.uleb128 0x13
 3366 019c 00       		.byte	0
 3367 019d 00       		.byte	0
 3368 019e 22       		.uleb128 0x22
 3369 019f 34       		.uleb128 0x34
 3370 01a0 00       		.byte	0
 3371 01a1 03       		.uleb128 0x3
 3372 01a2 08       		.uleb128 0x8
 3373 01a3 3A       		.uleb128 0x3a
 3374 01a4 0B       		.uleb128 0xb
 3375 01a5 3B       		.uleb128 0x3b
 3376 01a6 0B       		.uleb128 0xb
 3377 01a7 49       		.uleb128 0x49
 3378 01a8 13       		.uleb128 0x13
 3379 01a9 02       		.uleb128 0x2
 3380 01aa 0A       		.uleb128 0xa
 3381 01ab 00       		.byte	0
 3382 01ac 00       		.byte	0
 3383 01ad 23       		.uleb128 0x23
 3384 01ae 898201   		.uleb128 0x4109
 3385 01b1 00       		.byte	0
 3386 01b2 11       		.uleb128 0x11
 3387 01b3 01       		.uleb128 0x1
 3388 01b4 31       		.uleb128 0x31
 3389 01b5 13       		.uleb128 0x13
 3390 01b6 00       		.byte	0
 3391 01b7 00       		.byte	0
 3392 01b8 24       		.uleb128 0x24
 3393 01b9 898201   		.uleb128 0x4109
 3394 01bc 01       		.byte	0x1
 3395 01bd 11       		.uleb128 0x11
 3396 01be 01       		.uleb128 0x1
 3397 01bf 31       		.uleb128 0x31
 3398 01c0 13       		.uleb128 0x13
 3399 01c1 01       		.uleb128 0x1
 3400 01c2 13       		.uleb128 0x13
 3401 01c3 00       		.byte	0
 3402 01c4 00       		.byte	0
 3403 01c5 25       		.uleb128 0x25
 3404 01c6 8A8201   		.uleb128 0x410a
 3405 01c9 00       		.byte	0
 3406 01ca 02       		.uleb128 0x2
 3407 01cb 0A       		.uleb128 0xa
 3408 01cc 9142     		.uleb128 0x2111
 3409 01ce 0A       		.uleb128 0xa
 3410 01cf 00       		.byte	0
 3411 01d0 00       		.byte	0
 3412 01d1 26       		.uleb128 0x26
 3413 01d2 898201   		.uleb128 0x4109
 3414 01d5 01       		.byte	0x1
 3415 01d6 11       		.uleb128 0x11
 3416 01d7 01       		.uleb128 0x1
ARM GAS  /tmp/cc3Asyhh.s 			page 61


 3417 01d8 31       		.uleb128 0x31
 3418 01d9 13       		.uleb128 0x13
 3419 01da 00       		.byte	0
 3420 01db 00       		.byte	0
 3421 01dc 27       		.uleb128 0x27
 3422 01dd 34       		.uleb128 0x34
 3423 01de 00       		.byte	0
 3424 01df 03       		.uleb128 0x3
 3425 01e0 0E       		.uleb128 0xe
 3426 01e1 3A       		.uleb128 0x3a
 3427 01e2 0B       		.uleb128 0xb
 3428 01e3 3B       		.uleb128 0x3b
 3429 01e4 05       		.uleb128 0x5
 3430 01e5 49       		.uleb128 0x49
 3431 01e6 13       		.uleb128 0x13
 3432 01e7 3F       		.uleb128 0x3f
 3433 01e8 0C       		.uleb128 0xc
 3434 01e9 3C       		.uleb128 0x3c
 3435 01ea 0C       		.uleb128 0xc
 3436 01eb 00       		.byte	0
 3437 01ec 00       		.byte	0
 3438 01ed 28       		.uleb128 0x28
 3439 01ee 34       		.uleb128 0x34
 3440 01ef 00       		.byte	0
 3441 01f0 03       		.uleb128 0x3
 3442 01f1 0E       		.uleb128 0xe
 3443 01f2 3A       		.uleb128 0x3a
 3444 01f3 0B       		.uleb128 0xb
 3445 01f4 3B       		.uleb128 0x3b
 3446 01f5 0B       		.uleb128 0xb
 3447 01f6 49       		.uleb128 0x49
 3448 01f7 13       		.uleb128 0x13
 3449 01f8 3F       		.uleb128 0x3f
 3450 01f9 0C       		.uleb128 0xc
 3451 01fa 3C       		.uleb128 0x3c
 3452 01fb 0C       		.uleb128 0xc
 3453 01fc 00       		.byte	0
 3454 01fd 00       		.byte	0
 3455 01fe 29       		.uleb128 0x29
 3456 01ff 2E       		.uleb128 0x2e
 3457 0200 00       		.byte	0
 3458 0201 3F       		.uleb128 0x3f
 3459 0202 0C       		.uleb128 0xc
 3460 0203 03       		.uleb128 0x3
 3461 0204 0E       		.uleb128 0xe
 3462 0205 3A       		.uleb128 0x3a
 3463 0206 0B       		.uleb128 0xb
 3464 0207 3B       		.uleb128 0x3b
 3465 0208 0B       		.uleb128 0xb
 3466 0209 27       		.uleb128 0x27
 3467 020a 0C       		.uleb128 0xc
 3468 020b 3C       		.uleb128 0x3c
 3469 020c 0C       		.uleb128 0xc
 3470 020d 00       		.byte	0
 3471 020e 00       		.byte	0
 3472 020f 2A       		.uleb128 0x2a
 3473 0210 2E       		.uleb128 0x2e
ARM GAS  /tmp/cc3Asyhh.s 			page 62


 3474 0211 01       		.byte	0x1
 3475 0212 3F       		.uleb128 0x3f
 3476 0213 0C       		.uleb128 0xc
 3477 0214 03       		.uleb128 0x3
 3478 0215 0E       		.uleb128 0xe
 3479 0216 3A       		.uleb128 0x3a
 3480 0217 0B       		.uleb128 0xb
 3481 0218 3B       		.uleb128 0x3b
 3482 0219 05       		.uleb128 0x5
 3483 021a 27       		.uleb128 0x27
 3484 021b 0C       		.uleb128 0xc
 3485 021c 3C       		.uleb128 0x3c
 3486 021d 0C       		.uleb128 0xc
 3487 021e 01       		.uleb128 0x1
 3488 021f 13       		.uleb128 0x13
 3489 0220 00       		.byte	0
 3490 0221 00       		.byte	0
 3491 0222 2B       		.uleb128 0x2b
 3492 0223 2E       		.uleb128 0x2e
 3493 0224 00       		.byte	0
 3494 0225 3F       		.uleb128 0x3f
 3495 0226 0C       		.uleb128 0xc
 3496 0227 03       		.uleb128 0x3
 3497 0228 0E       		.uleb128 0xe
 3498 0229 3A       		.uleb128 0x3a
 3499 022a 0B       		.uleb128 0xb
 3500 022b 3B       		.uleb128 0x3b
 3501 022c 0B       		.uleb128 0xb
 3502 022d 27       		.uleb128 0x27
 3503 022e 0C       		.uleb128 0xc
 3504 022f 49       		.uleb128 0x49
 3505 0230 13       		.uleb128 0x13
 3506 0231 3C       		.uleb128 0x3c
 3507 0232 0C       		.uleb128 0xc
 3508 0233 00       		.byte	0
 3509 0234 00       		.byte	0
 3510 0235 2C       		.uleb128 0x2c
 3511 0236 2E       		.uleb128 0x2e
 3512 0237 01       		.byte	0x1
 3513 0238 3F       		.uleb128 0x3f
 3514 0239 0C       		.uleb128 0xc
 3515 023a 03       		.uleb128 0x3
 3516 023b 0E       		.uleb128 0xe
 3517 023c 3A       		.uleb128 0x3a
 3518 023d 0B       		.uleb128 0xb
 3519 023e 3B       		.uleb128 0x3b
 3520 023f 0B       		.uleb128 0xb
 3521 0240 27       		.uleb128 0x27
 3522 0241 0C       		.uleb128 0xc
 3523 0242 3C       		.uleb128 0x3c
 3524 0243 0C       		.uleb128 0xc
 3525 0244 00       		.byte	0
 3526 0245 00       		.byte	0
 3527 0246 00       		.byte	0
 3528              		.section	.debug_loc,"",%progbits
 3529              	.Ldebug_loc0:
 3530              	.LLST0:
ARM GAS  /tmp/cc3Asyhh.s 			page 63


 3531 0000 00000000 		.4byte	.LFB118
 3532 0004 02000000 		.4byte	.LCFI0
 3533 0008 0200     		.2byte	0x2
 3534 000a 7D       		.byte	0x7d
 3535 000b 00       		.sleb128 0
 3536 000c 02000000 		.4byte	.LCFI0
 3537 0010 2C000000 		.4byte	.LFE118
 3538 0014 0200     		.2byte	0x2
 3539 0016 7D       		.byte	0x7d
 3540 0017 08       		.sleb128 8
 3541 0018 00000000 		.4byte	0
 3542 001c 00000000 		.4byte	0
 3543              		.section	.debug_aranges,"",%progbits
 3544 0000 1C000000 		.4byte	0x1c
 3545 0004 0200     		.2byte	0x2
 3546 0006 00000000 		.4byte	.Ldebug_info0
 3547 000a 04       		.byte	0x4
 3548 000b 00       		.byte	0
 3549 000c 0000     		.2byte	0
 3550 000e 0000     		.2byte	0
 3551 0010 00000000 		.4byte	.LFB118
 3552 0014 2C000000 		.4byte	.LFE118-.LFB118
 3553 0018 00000000 		.4byte	0
 3554 001c 00000000 		.4byte	0
 3555              		.section	.debug_ranges,"",%progbits
 3556              	.Ldebug_ranges0:
 3557 0000 00000000 		.4byte	.LFB118
 3558 0004 2C000000 		.4byte	.LFE118
 3559 0008 00000000 		.4byte	0
 3560 000c 00000000 		.4byte	0
 3561              		.section	.debug_line,"",%progbits
 3562              	.Ldebug_line0:
 3563 0000 E2020000 		.section	.debug_str,"MS",%progbits,1
 3563      0200C102 
 3563      00000201 
 3563      FB0E0D00 
 3563      01010101 
 3564              	.LASF11:
 3565 0000 73697A65 		.ascii	"size_t\000"
 3565      5F7400
 3566              	.LASF8:
 3567 0007 73697A65 		.ascii	"sizetype\000"
 3567      74797065 
 3567      00
 3568              	.LASF26:
 3569 0010 73797374 		.ascii	"systime_t\000"
 3569      696D655F 
 3569      7400
 3570              	.LASF31:
 3571 001a 705F6374 		.ascii	"p_ctx\000"
 3571      7800
 3572              	.LASF23:
 3573 0020 74707269 		.ascii	"tprio_t\000"
 3573      6F5F7400 
 3574              	.LASF42:
 3575 0028 705F6D73 		.ascii	"p_msgqueue\000"
 3575      67717565 
ARM GAS  /tmp/cc3Asyhh.s 			page 64


 3575      756500
 3576              	.LASF209:
 3577 0033 72785F66 		.ascii	"rx_fifo_size\000"
 3577      69666F5F 
 3577      73697A65 
 3577      00
 3578              	.LASF14:
 3579 0040 696E7433 		.ascii	"int32_t\000"
 3579      325F7400 
 3580              	.LASF258:
 3581 0048 77726974 		.ascii	"writet\000"
 3581      657400
 3582              	.LASF144:
 3583 004f 72657376 		.ascii	"resvd4\000"
 3583      643400
 3584              	.LASF135:
 3585 0056 72657376 		.ascii	"resvd8\000"
 3585      643800
 3586              	.LASF146:
 3587 005d 72657376 		.ascii	"resvdC\000"
 3587      644300
 3588              	.LASF81:
 3589 0064 77726974 		.ascii	"write\000"
 3589      6500
 3590              	.LASF83:
 3591 006a 42617365 		.ascii	"BaseSequentialStream\000"
 3591      53657175 
 3591      656E7469 
 3591      616C5374 
 3591      7265616D 
 3592              	.LASF184:
 3593 007f 72657376 		.ascii	"resvd700\000"
 3593      64373030 
 3593      00
 3594              	.LASF87:
 3595 0088 636F6E66 		.ascii	"config\000"
 3595      696700
 3596              	.LASF86:
 3597 008f 73746174 		.ascii	"state\000"
 3597      6500
 3598              	.LASF228:
 3599 0095 65705F6D 		.ascii	"ep_mode\000"
 3599      6F646500 
 3600              	.LASF256:
 3601 009d 70757474 		.ascii	"putt\000"
 3601      00
 3602              	.LASF110:
 3603 00a2 5553425F 		.ascii	"USB_ACTIVE\000"
 3603      41435449 
 3603      564500
 3604              	.LASF56:
 3605 00ad 6D5F6F77 		.ascii	"m_owner\000"
 3605      6E657200 
 3606              	.LASF65:
 3607 00b5 65786974 		.ascii	"exitcode\000"
 3607      636F6465 
 3607      00
ARM GAS  /tmp/cc3Asyhh.s 			page 65


 3608              	.LASF118:
 3609 00be 75736265 		.ascii	"usbep0state_t\000"
 3609      70307374 
 3609      6174655F 
 3609      7400
 3610              	.LASF72:
 3611 00cc 715F746F 		.ascii	"q_top\000"
 3611      7000
 3612              	.LASF67:
 3613 00d2 65776D61 		.ascii	"ewmask\000"
 3613      736B00
 3614              	.LASF259:
 3615 00d9 72656164 		.ascii	"readt\000"
 3615      7400
 3616              	.LASF71:
 3617 00df 715F6275 		.ascii	"q_buffer\000"
 3617      66666572 
 3617      00
 3618              	.LASF120:
 3619 00e8 5553425F 		.ascii	"USB_EVENT_ADDRESS\000"
 3619      4556454E 
 3619      545F4144 
 3619      44524553 
 3619      5300
 3620              	.LASF165:
 3621 00fa 44494550 		.ascii	"DIEPTXF0\000"
 3621      54584630 
 3621      00
 3622              	.LASF75:
 3623 0103 715F6E6F 		.ascii	"q_notify\000"
 3623      74696679 
 3623      00
 3624              	.LASF32:
 3625 010c 705F6E65 		.ascii	"p_newer\000"
 3625      77657200 
 3626              	.LASF7:
 3627 0114 6C6F6E67 		.ascii	"long int\000"
 3627      20696E74 
 3627      00
 3628              	.LASF28:
 3629 011d 705F6E65 		.ascii	"p_next\000"
 3629      787400
 3630              	.LASF74:
 3631 0124 715F7264 		.ascii	"q_rdptr\000"
 3631      70747200 
 3632              	.LASF219:
 3633 012c 7478636E 		.ascii	"txcnt\000"
 3633      7400
 3634              	.LASF265:
 3635 0132 6D795553 		.ascii	"myUSBinit\000"
 3635      42696E69 
 3635      7400
 3636              	.LASF29:
 3637 013c 705F7072 		.ascii	"p_prev\000"
 3637      657600
 3638              	.LASF20:
 3639 0143 74737461 		.ascii	"tstate_t\000"
ARM GAS  /tmp/cc3Asyhh.s 			page 66


 3639      74655F74 
 3639      00
 3640              	.LASF269:
 3641 014c 6D61696E 		.ascii	"main\000"
 3641      00
 3642              	.LASF233:
 3643 0151 6F75745F 		.ascii	"out_maxsize\000"
 3643      6D617873 
 3643      697A6500 
 3644              	.LASF45:
 3645 015d 705F6D74 		.ascii	"p_mtxlist\000"
 3645      786C6973 
 3645      7400
 3646              	.LASF103:
 3647 0167 7468645F 		.ascii	"thd_wait\000"
 3647      77616974 
 3647      00
 3648              	.LASF213:
 3649 0170 74786275 		.ascii	"txbuf\000"
 3649      6600
 3650              	.LASF50:
 3651 0176 72656761 		.ascii	"regarm_t\000"
 3651      726D5F74 
 3651      00
 3652              	.LASF191:
 3653 017f 4441494E 		.ascii	"DAINT\000"
 3653      5400
 3654              	.LASF112:
 3655 0185 5553425F 		.ascii	"USB_EP0_WAITING_SETUP\000"
 3655      4550305F 
 3655      57414954 
 3655      494E475F 
 3655      53455455 
 3656              	.LASF190:
 3657 019b 444F4550 		.ascii	"DOEPMSK\000"
 3657      4D534B00 
 3658              	.LASF151:
 3659 01a3 444F4550 		.ascii	"DOEPCTL\000"
 3659      43544C00 
 3660              	.LASF1:
 3661 01ab 7369676E 		.ascii	"signed char\000"
 3661      65642063 
 3661      68617200 
 3662              	.LASF39:
 3663 01b7 705F7072 		.ascii	"p_preempt\000"
 3663      65656D70 
 3663      7400
 3664              	.LASF12:
 3665 01c1 75696E74 		.ascii	"uint8_t\000"
 3665      385F7400 
 3666              	.LASF124:
 3667 01c9 5553425F 		.ascii	"USB_EVENT_STALLED\000"
 3667      4556454E 
 3667      545F5354 
 3667      414C4C45 
 3667      4400
 3668              	.LASF152:
ARM GAS  /tmp/cc3Asyhh.s 			page 67


 3669 01db 444F4550 		.ascii	"DOEPINT\000"
 3669      494E5400 
 3670              	.LASF25:
 3671 01e3 6576656E 		.ascii	"eventmask_t\000"
 3671      746D6173 
 3671      6B5F7400 
 3672              	.LASF53:
 3673 01ef 636F6E74 		.ascii	"context\000"
 3673      65787400 
 3674              	.LASF225:
 3675 01f7 72787369 		.ascii	"rxsize\000"
 3675      7A6500
 3676              	.LASF2:
 3677 01fe 756E7369 		.ascii	"unsigned char\000"
 3677      676E6564 
 3677      20636861 
 3677      7200
 3678              	.LASF117:
 3679 020c 5553425F 		.ascii	"USB_EP0_ERROR\000"
 3679      4550305F 
 3679      4552524F 
 3679      5200
 3680              	.LASF76:
 3681 021a 715F6C69 		.ascii	"q_link\000"
 3681      6E6B00
 3682              	.LASF266:
 3683 0221 474E5520 		.ascii	"GNU C 4.7.3 20130312 (release) [ARM/embedded-4_7-br"
 3683      4320342E 
 3683      372E3320 
 3683      32303133 
 3683      30333132 
 3684 0254 616E6368 		.ascii	"anch revision 196615]\000"
 3684      20726576 
 3684      6973696F 
 3684      6E203139 
 3684      36363135 
 3685              	.LASF185:
 3686 026a 44434647 		.ascii	"DCFG\000"
 3686      00
 3687              	.LASF169:
 3688 026f 47434346 		.ascii	"GCCFG\000"
 3688      4700
 3689              	.LASF91:
 3690 0275 65703073 		.ascii	"ep0state\000"
 3690      74617465 
 3690      00
 3691              	.LASF147:
 3692 027e 44494550 		.ascii	"DIEPTSIZ\000"
 3692      5453495A 
 3692      00
 3693              	.LASF241:
 3694 0287 72657175 		.ascii	"requests_hook_cb\000"
 3694      65737473 
 3694      5F686F6F 
 3694      6B5F6362 
 3694      00
 3695              	.LASF268:
ARM GAS  /tmp/cc3Asyhh.s 			page 68


 3696 0298 2F686F6D 		.ascii	"/home/gokul/STM_Library/USB\000"
 3696      652F676F 
 3696      6B756C2F 
 3696      53544D5F 
 3696      4C696272 
 3697              	.LASF174:
 3698 02b4 48434647 		.ascii	"HCFG\000"
 3698      00
 3699              	.LASF134:
 3700 02b9 48434348 		.ascii	"HCCHAR\000"
 3700      415200
 3701              	.LASF154:
 3702 02c0 73746D33 		.ascii	"stm32_otg_out_ep_t\000"
 3702      325F6F74 
 3702      675F6F75 
 3702      745F6570 
 3702      5F7400
 3703              	.LASF10:
 3704 02d3 63686172 		.ascii	"char\000"
 3704      00
 3705              	.LASF93:
 3706 02d8 6570306E 		.ascii	"ep0n\000"
 3706      00
 3707              	.LASF188:
 3708 02dd 72657376 		.ascii	"resvd80C\000"
 3708      64383043 
 3708      00
 3709              	.LASF182:
 3710 02e6 48505254 		.ascii	"HPRT\000"
 3710      00
 3711              	.LASF30:
 3712 02eb 705F7072 		.ascii	"p_prio\000"
 3712      696F00
 3713              	.LASF90:
 3714 02f2 72656365 		.ascii	"receiving\000"
 3714      6976696E 
 3714      6700
 3715              	.LASF68:
 3716 02fc 47656E65 		.ascii	"GenericQueue\000"
 3716      72696351 
 3716      75657565 
 3716      00
 3717              	.LASF66:
 3718 0309 77746F62 		.ascii	"wtobjp\000"
 3718      6A7000
 3719              	.LASF206:
 3720 0310 72657376 		.ascii	"resvdE04\000"
 3720      64453034 
 3720      00
 3721              	.LASF229:
 3722 0319 73657475 		.ascii	"setup_cb\000"
 3722      705F6362 
 3722      00
 3723              	.LASF127:
 3724 0322 75645F73 		.ascii	"ud_string\000"
 3724      7472696E 
 3724      6700
ARM GAS  /tmp/cc3Asyhh.s 			page 69


 3725              	.LASF250:
 3726 032c 666C6167 		.ascii	"flags\000"
 3726      7300
 3727              	.LASF230:
 3728 0332 696E5F63 		.ascii	"in_cb\000"
 3728      6200
 3729              	.LASF257:
 3730 0338 67657474 		.ascii	"gett\000"
 3730      00
 3731              	.LASF51:
 3732 033d 73746B61 		.ascii	"stkalign_t\000"
 3732      6C69676E 
 3732      5F7400
 3733              	.LASF79:
 3734 0348 4F757470 		.ascii	"OutputQueue\000"
 3734      75745175 
 3734      65756500 
 3735              	.LASF176:
 3736 0354 48464E55 		.ascii	"HFNUM\000"
 3736      4D00
 3737              	.LASF131:
 3738 035a 75736265 		.ascii	"usbeventcb_t\000"
 3738      76656E74 
 3738      63625F74 
 3738      00
 3739              	.LASF142:
 3740 0367 73746D33 		.ascii	"stm32_otg_host_chn_t\000"
 3740      325F6F74 
 3740      675F686F 
 3740      73745F63 
 3740      686E5F74 
 3741              	.LASF89:
 3742 037c 7472616E 		.ascii	"transmitting\000"
 3742      736D6974 
 3742      74696E67 
 3742      00
 3743              	.LASF138:
 3744 0389 48435453 		.ascii	"HCTSIZ\000"
 3744      495A00
 3745              	.LASF221:
 3746 0390 55534249 		.ascii	"USBInEndpointState\000"
 3746      6E456E64 
 3746      706F696E 
 3746      74537461 
 3746      746500
 3747              	.LASF193:
 3748 03a3 72657376 		.ascii	"resvd820\000"
 3748      64383230 
 3748      00
 3749              	.LASF194:
 3750 03ac 72657376 		.ascii	"resvd824\000"
 3750      64383234 
 3750      00
 3751              	.LASF196:
 3752 03b5 44564255 		.ascii	"DVBUSPULSE\000"
 3752      5350554C 
 3752      534500
ARM GAS  /tmp/cc3Asyhh.s 			page 70


 3753              	.LASF270:
 3754 03c0 63685468 		.ascii	"chThdSleep\000"
 3754      64536C65 
 3754      657000
 3755              	.LASF198:
 3756 03cb 44494550 		.ascii	"DIEPEMPMSK\000"
 3756      454D504D 
 3756      534B00
 3757              	.LASF128:
 3758 03d6 55534244 		.ascii	"USBDescriptor\000"
 3758      65736372 
 3758      6970746F 
 3758      7200
 3759              	.LASF212:
 3760 03e4 73746D33 		.ascii	"stm32_otg_params_t\000"
 3760      325F6F74 
 3760      675F7061 
 3760      72616D73 
 3760      5F7400
 3761              	.LASF95:
 3762 03f7 73657475 		.ascii	"setup\000"
 3762      7000
 3763              	.LASF52:
 3764 03fd 696E7463 		.ascii	"intctx\000"
 3764      747800
 3765              	.LASF44:
 3766 0404 705F6570 		.ascii	"p_epending\000"
 3766      656E6469 
 3766      6E6700
 3767              	.LASF159:
 3768 040f 47525354 		.ascii	"GRSTCTL\000"
 3768      43544C00 
 3769              	.LASF125:
 3770 0417 75736265 		.ascii	"usbevent_t\000"
 3770      76656E74 
 3770      5F7400
 3771              	.LASF199:
 3772 0422 72657376 		.ascii	"resvd838\000"
 3772      64383338 
 3772      00
 3773              	.LASF126:
 3774 042b 75645F73 		.ascii	"ud_size\000"
 3774      697A6500 
 3775              	.LASF255:
 3776 0433 53657269 		.ascii	"SerialUSBDriverVMT\000"
 3776      616C5553 
 3776      42447269 
 3776      76657256 
 3776      4D5400
 3777              	.LASF109:
 3778 0446 5553425F 		.ascii	"USB_SELECTED\000"
 3778      53454C45 
 3778      43544544 
 3778      00
 3779              	.LASF98:
 3780 0453 636F6E66 		.ascii	"configuration\000"
 3780      69677572 
ARM GAS  /tmp/cc3Asyhh.s 			page 71


 3780      6174696F 
 3780      6E00
 3781              	.LASF164:
 3782 0461 47525846 		.ascii	"GRXFSIZ\000"
 3782      53495A00 
 3783              	.LASF63:
 3784 0469 65735F6E 		.ascii	"es_next\000"
 3784      65787400 
 3785              	.LASF70:
 3786 0471 715F636F 		.ascii	"q_counter\000"
 3786      756E7465 
 3786      7200
 3787              	.LASF201:
 3788 047b 72657376 		.ascii	"resvd840\000"
 3788      64383430 
 3788      00
 3789              	.LASF62:
 3790 0484 4576656E 		.ascii	"EventSource\000"
 3790      74536F75 
 3790      72636500 
 3791              	.LASF172:
 3792 0490 44494550 		.ascii	"DIEPTXF\000"
 3792      54584600 
 3793              	.LASF9:
 3794 0498 6C6F6E67 		.ascii	"long unsigned int\000"
 3794      20756E73 
 3794      69676E65 
 3794      6420696E 
 3794      7400
 3795              	.LASF96:
 3796 04aa 73746174 		.ascii	"status\000"
 3796      757300
 3797              	.LASF88:
 3798 04b1 70617261 		.ascii	"param\000"
 3798      6D00
 3799              	.LASF97:
 3800 04b7 61646472 		.ascii	"address\000"
 3800      65737300 
 3801              	.LASF94:
 3802 04bf 65703065 		.ascii	"ep0endcb\000"
 3802      6E646362 
 3802      00
 3803              	.LASF157:
 3804 04c8 47414842 		.ascii	"GAHBCFG\000"
 3804      43464700 
 3805              	.LASF236:
 3806 04d0 696E5F6D 		.ascii	"in_multiplier\000"
 3806      756C7469 
 3806      706C6965 
 3806      7200
 3807              	.LASF59:
 3808 04de 656C5F6E 		.ascii	"el_next\000"
 3808      65787400 
 3809              	.LASF253:
 3810 04e6 75736270 		.ascii	"usbp\000"
 3810      00
 3811              	.LASF211:
ARM GAS  /tmp/cc3Asyhh.s 			page 72


 3812 04eb 6E756D5F 		.ascii	"num_endpoints\000"
 3812      656E6470 
 3812      6F696E74 
 3812      7300
 3813              	.LASF73:
 3814 04f9 715F7772 		.ascii	"q_wrptr\000"
 3814      70747200 
 3815              	.LASF218:
 3816 0501 74787369 		.ascii	"txsize\000"
 3816      7A6500
 3817              	.LASF246:
 3818 0508 5344555F 		.ascii	"SDU_READY\000"
 3818      52454144 
 3818      5900
 3819              	.LASF102:
 3820 0512 7468645F 		.ascii	"thd_ptr\000"
 3820      70747200 
 3821              	.LASF263:
 3822 051a 68616C49 		.ascii	"halInit\000"
 3822      6E697400 
 3823              	.LASF226:
 3824 0522 7278636E 		.ascii	"rxcnt\000"
 3824      7400
 3825              	.LASF111:
 3826 0528 75736273 		.ascii	"usbstate_t\000"
 3826      74617465 
 3826      5F7400
 3827              	.LASF177:
 3828 0533 72657376 		.ascii	"resvd40C\000"
 3828      64343043 
 3828      00
 3829              	.LASF155:
 3830 053c 474F5447 		.ascii	"GOTGCTL\000"
 3830      43544C00 
 3831              	.LASF222:
 3832 0544 72786275 		.ascii	"rxbuf\000"
 3832      6600
 3833              	.LASF163:
 3834 054a 47525853 		.ascii	"GRXSTSP\000"
 3834      54535000 
 3835              	.LASF234:
 3836 0552 696E5F73 		.ascii	"in_state\000"
 3836      74617465 
 3836      00
 3837              	.LASF162:
 3838 055b 47525853 		.ascii	"GRXSTSR\000"
 3838      54535200 
 3839              	.LASF123:
 3840 0563 5553425F 		.ascii	"USB_EVENT_WAKEUP\000"
 3840      4556454E 
 3840      545F5741 
 3840      4B455550 
 3840      00
 3841              	.LASF205:
 3842 0574 50434743 		.ascii	"PCGCCTL\000"
 3842      43544C00 
 3843              	.LASF239:
ARM GAS  /tmp/cc3Asyhh.s 			page 73


 3844 057c 6576656E 		.ascii	"event_cb\000"
 3844      745F6362 
 3844      00
 3845              	.LASF54:
 3846 0585 4D757465 		.ascii	"Mutex\000"
 3846      7800
 3847              	.LASF5:
 3848 058b 6C6F6E67 		.ascii	"long long int\000"
 3848      206C6F6E 
 3848      6720696E 
 3848      7400
 3849              	.LASF108:
 3850 0599 5553425F 		.ascii	"USB_READY\000"
 3850      52454144 
 3850      5900
 3851              	.LASF262:
 3852 05a3 53445531 		.ascii	"SDU1\000"
 3852      00
 3853              	.LASF55:
 3854 05a8 6D5F7175 		.ascii	"m_queue\000"
 3854      65756500 
 3855              	.LASF181:
 3856 05b0 72657376 		.ascii	"resvd41C\000"
 3856      64343143 
 3856      00
 3857              	.LASF92:
 3858 05b9 6570306E 		.ascii	"ep0next\000"
 3858      65787400 
 3859              	.LASF251:
 3860 05c1 69717565 		.ascii	"iqueue\000"
 3860      756500
 3861              	.LASF267:
 3862 05c8 6D61696E 		.ascii	"main.c\000"
 3862      2E6300
 3863              	.LASF197:
 3864 05cf 72657376 		.ascii	"resvd830\000"
 3864      64383330 
 3864      00
 3865              	.LASF130:
 3866 05d8 75736265 		.ascii	"usbepcallback_t\000"
 3866      7063616C 
 3866      6C626163 
 3866      6B5F7400 
 3867              	.LASF202:
 3868 05e8 72657376 		.ascii	"resvd880\000"
 3868      64383830 
 3868      00
 3869              	.LASF261:
 3870 05f1 49544D5F 		.ascii	"ITM_RxBuffer\000"
 3870      52784275 
 3870      66666572 
 3870      00
 3871              	.LASF200:
 3872 05fe 72657376 		.ascii	"resvd83C\000"
 3872      64383343 
 3872      00
 3873              	.LASF77:
ARM GAS  /tmp/cc3Asyhh.s 			page 74


 3874 0607 716E6F74 		.ascii	"qnotify_t\000"
 3874      6966795F 
 3874      7400
 3875              	.LASF41:
 3876 0611 705F7761 		.ascii	"p_waiting\000"
 3876      6974696E 
 3876      6700
 3877              	.LASF249:
 3878 061b 6576656E 		.ascii	"event\000"
 3878      7400
 3879              	.LASF37:
 3880 0621 705F666C 		.ascii	"p_flags\000"
 3880      61677300 
 3881              	.LASF153:
 3882 0629 444F4550 		.ascii	"DOEPTSIZ\000"
 3882      5453495A 
 3882      00
 3883              	.LASF82:
 3884 0632 72656164 		.ascii	"read\000"
 3884      00
 3885              	.LASF179:
 3886 0637 4841494E 		.ascii	"HAINT\000"
 3886      5400
 3887              	.LASF0:
 3888 063d 756E7369 		.ascii	"unsigned int\000"
 3888      676E6564 
 3888      20696E74 
 3888      00
 3889              	.LASF243:
 3890 064a 55534243 		.ascii	"USBConfig\000"
 3890      6F6E6669 
 3890      6700
 3891              	.LASF247:
 3892 0654 73647573 		.ascii	"sdustate_t\000"
 3892      74617465 
 3892      5F7400
 3893              	.LASF101:
 3894 065f 74787065 		.ascii	"txpending\000"
 3894      6E64696E 
 3894      6700
 3895              	.LASF47:
 3896 0669 705F6D70 		.ascii	"p_mpool\000"
 3896      6F6F6C00 
 3897              	.LASF208:
 3898 0671 73746D33 		.ascii	"stm32_otg_t\000"
 3898      325F6F74 
 3898      675F7400 
 3899              	.LASF38:
 3900 067d 705F7265 		.ascii	"p_refs\000"
 3900      667300
 3901              	.LASF237:
 3902 0684 73657475 		.ascii	"setup_buf\000"
 3902      705F6275 
 3902      6600
 3903              	.LASF84:
 3904 068e 63686E66 		.ascii	"chnflags_t\000"
 3904      6C616773 
ARM GAS  /tmp/cc3Asyhh.s 			page 75


 3904      5F7400
 3905              	.LASF49:
 3906 0699 54687265 		.ascii	"ThreadsList\000"
 3906      6164734C 
 3906      69737400 
 3907              	.LASF183:
 3908 06a5 72657376 		.ascii	"resvd444\000"
 3908      64343434 
 3908      00
 3909              	.LASF231:
 3910 06ae 6F75745F 		.ascii	"out_cb\000"
 3910      636200
 3911              	.LASF254:
 3912 06b5 53657269 		.ascii	"SerialUSBConfig\000"
 3912      616C5553 
 3912      42436F6E 
 3912      66696700 
 3913              	.LASF85:
 3914 06c5 55534244 		.ascii	"USBDriver\000"
 3914      72697665 
 3914      7200
 3915              	.LASF180:
 3916 06cf 4841494E 		.ascii	"HAINTMSK\000"
 3916      544D534B 
 3916      00
 3917              	.LASF107:
 3918 06d8 5553425F 		.ascii	"USB_STOP\000"
 3918      53544F50 
 3918      00
 3919              	.LASF232:
 3920 06e1 696E5F6D 		.ascii	"in_maxsize\000"
 3920      61787369 
 3920      7A6500
 3921              	.LASF161:
 3922 06ec 47494E54 		.ascii	"GINTMSK\000"
 3922      4D534B00 
 3923              	.LASF40:
 3924 06f4 705F7469 		.ascii	"p_time\000"
 3924      6D6500
 3925              	.LASF235:
 3926 06fb 6F75745F 		.ascii	"out_state\000"
 3926      73746174 
 3926      6500
 3927              	.LASF248:
 3928 0705 53657269 		.ascii	"SerialUSBDriver\000"
 3928      616C5553 
 3928      42447269 
 3928      76657200 
 3929              	.LASF46:
 3930 0715 705F7265 		.ascii	"p_realprio\000"
 3930      616C7072 
 3930      696F00
 3931              	.LASF99:
 3932 0720 6F746770 		.ascii	"otgparams\000"
 3932      6172616D 
 3932      7300
 3933              	.LASF271:
ARM GAS  /tmp/cc3Asyhh.s 			page 76


 3934 072a 69735573 		.ascii	"isUsbActive\000"
 3934      62416374 
 3934      69766500 
 3935              	.LASF106:
 3936 0736 5553425F 		.ascii	"USB_UNINIT\000"
 3936      554E494E 
 3936      495400
 3937              	.LASF227:
 3938 0741 5553424F 		.ascii	"USBOutEndpointState\000"
 3938      7574456E 
 3938      64706F69 
 3938      6E745374 
 3938      61746500 
 3939              	.LASF204:
 3940 0755 72657376 		.ascii	"resvdD00\000"
 3940      64443030 
 3940      00
 3941              	.LASF6:
 3942 075e 6C6F6E67 		.ascii	"long long unsigned int\000"
 3942      206C6F6E 
 3942      6720756E 
 3942      7369676E 
 3942      65642069 
 3943              	.LASF171:
 3944 0775 48505458 		.ascii	"HPTXFSIZ\000"
 3944      4653495A 
 3944      00
 3945              	.LASF33:
 3946 077e 705F6F6C 		.ascii	"p_older\000"
 3946      64657200 
 3947              	.LASF113:
 3948 0786 5553425F 		.ascii	"USB_EP0_TX\000"
 3948      4550305F 
 3948      545800
 3949              	.LASF13:
 3950 0791 75696E74 		.ascii	"uint16_t\000"
 3950      31365F74 
 3950      00
 3951              	.LASF136:
 3952 079a 4843494E 		.ascii	"HCINT\000"
 3952      5400
 3953              	.LASF215:
 3954 07a0 6C696E65 		.ascii	"linear\000"
 3954      617200
 3955              	.LASF24:
 3956 07a7 6D73675F 		.ascii	"msg_t\000"
 3956      7400
 3957              	.LASF186:
 3958 07ad 4443544C 		.ascii	"DCTL\000"
 3958      00
 3959              	.LASF238:
 3960 07b2 55534245 		.ascii	"USBEndpointConfig\000"
 3960      6E64706F 
 3960      696E7443 
 3960      6F6E6669 
 3960      6700
 3961              	.LASF137:
ARM GAS  /tmp/cc3Asyhh.s 			page 77


 3962 07c4 4843494E 		.ascii	"HCINTMSK\000"
 3962      544D534B 
 3962      00
 3963              	.LASF224:
 3964 07cd 72787175 		.ascii	"rxqueued\000"
 3964      65756564 
 3964      00
 3965              	.LASF22:
 3966 07d6 74736C69 		.ascii	"tslices_t\000"
 3966      6365735F 
 3966      7400
 3967              	.LASF156:
 3968 07e0 474F5447 		.ascii	"GOTGINT\000"
 3968      494E5400 
 3969              	.LASF216:
 3970 07e8 71756575 		.ascii	"queue\000"
 3970      6500
 3971              	.LASF223:
 3972 07ee 72787175 		.ascii	"rxqueue\000"
 3972      65756500 
 3973              	.LASF192:
 3974 07f6 4441494E 		.ascii	"DAINTMSK\000"
 3974      544D534B 
 3974      00
 3975              	.LASF195:
 3976 07ff 44564255 		.ascii	"DVBUSDIS\000"
 3976      53444953 
 3976      00
 3977              	.LASF150:
 3978 0808 73746D33 		.ascii	"stm32_otg_in_ep_t\000"
 3978      325F6F74 
 3978      675F696E 
 3978      5F65705F 
 3978      7400
 3979              	.LASF210:
 3980 081a 6F74675F 		.ascii	"otg_ram_size\000"
 3980      72616D5F 
 3980      73697A65 
 3980      00
 3981              	.LASF121:
 3982 0827 5553425F 		.ascii	"USB_EVENT_CONFIGURED\000"
 3982      4556454E 
 3982      545F434F 
 3982      4E464947 
 3982      55524544 
 3983              	.LASF207:
 3984 083c 4649464F 		.ascii	"FIFO\000"
 3984      00
 3985              	.LASF69:
 3986 0841 715F7761 		.ascii	"q_waiting\000"
 3986      6974696E 
 3986      6700
 3987              	.LASF80:
 3988 084b 42617365 		.ascii	"BaseSequentialStreamVMT\000"
 3988      53657175 
 3988      656E7469 
 3988      616C5374 
ARM GAS  /tmp/cc3Asyhh.s 			page 78


 3988      7265616D 
 3989              	.LASF19:
 3990 0863 746D6F64 		.ascii	"tmode_t\000"
 3990      655F7400 
 3991              	.LASF133:
 3992 086b 75736267 		.ascii	"usbgetdescriptor_t\000"
 3992      65746465 
 3992      73637269 
 3992      70746F72 
 3992      5F7400
 3993              	.LASF104:
 3994 087e 77615F70 		.ascii	"wa_pump\000"
 3994      756D7000 
 3995              	.LASF272:
 3996 0886 73656E64 		.ascii	"send_data\000"
 3996      5F646174 
 3996      6100
 3997              	.LASF252:
 3998 0890 6F717565 		.ascii	"oqueue\000"
 3998      756500
 3999              	.LASF3:
 4000 0897 73686F72 		.ascii	"short int\000"
 4000      7420696E 
 4000      7400
 4001              	.LASF16:
 4002 08a1 75696E74 		.ascii	"uint64_t\000"
 4002      36345F74 
 4002      00
 4003              	.LASF220:
 4004 08aa 6D6F6465 		.ascii	"mode\000"
 4004      00
 4005              	.LASF119:
 4006 08af 5553425F 		.ascii	"USB_EVENT_RESET\000"
 4006      4556454E 
 4006      545F5245 
 4006      53455400 
 4007              	.LASF139:
 4008 08bf 72657376 		.ascii	"resvd14\000"
 4008      64313400 
 4009              	.LASF140:
 4010 08c7 72657376 		.ascii	"resvd18\000"
 4010      64313800 
 4011              	.LASF148:
 4012 08cf 44545846 		.ascii	"DTXFSTS\000"
 4012      53545300 
 4013              	.LASF214:
 4014 08d7 74787175 		.ascii	"txqueue\000"
 4014      65756500 
 4015              	.LASF149:
 4016 08df 72657376 		.ascii	"resvd1C\000"
 4016      64314300 
 4017              	.LASF189:
 4018 08e7 44494550 		.ascii	"DIEPMSK\000"
 4018      4D534B00 
 4019              	.LASF18:
 4020 08ef 626F6F6C 		.ascii	"bool_t\000"
 4020      5F7400
ARM GAS  /tmp/cc3Asyhh.s 			page 79


 4021              	.LASF244:
 4022 08f6 5344555F 		.ascii	"SDU_UNINIT\000"
 4022      554E494E 
 4022      495400
 4023              	.LASF141:
 4024 0901 72657376 		.ascii	"resvd1c\000"
 4024      64316300 
 4025              	.LASF132:
 4026 0909 75736272 		.ascii	"usbreqhandler_t\000"
 4026      65716861 
 4026      6E646C65 
 4026      725F7400 
 4027              	.LASF143:
 4028 0919 44494550 		.ascii	"DIEPCTL\000"
 4028      43544C00 
 4029              	.LASF129:
 4030 0921 75736263 		.ascii	"usbcallback_t\000"
 4030      616C6C62 
 4030      61636B5F 
 4030      7400
 4031              	.LASF27:
 4032 092f 54687265 		.ascii	"Thread\000"
 4032      616400
 4033              	.LASF160:
 4034 0936 47494E54 		.ascii	"GINTSTS\000"
 4034      53545300 
 4035              	.LASF260:
 4036 093e 67657466 		.ascii	"getflags\000"
 4036      6C616773 
 4036      00
 4037              	.LASF145:
 4038 0947 44494550 		.ascii	"DIEPINT\000"
 4038      494E5400 
 4039              	.LASF166:
 4040 094f 484E5054 		.ascii	"HNPTXSTS\000"
 4040      58535453 
 4040      00
 4041              	.LASF21:
 4042 0958 74726566 		.ascii	"trefs_t\000"
 4042      735F7400 
 4043              	.LASF242:
 4044 0960 736F665F 		.ascii	"sof_cb\000"
 4044      636200
 4045              	.LASF58:
 4046 0967 4576656E 		.ascii	"EventListener\000"
 4046      744C6973 
 4046      74656E65 
 4046      7200
 4047              	.LASF167:
 4048 0975 72657376 		.ascii	"resvd30\000"
 4048      64333000 
 4049              	.LASF203:
 4050 097d 72657376 		.ascii	"resvd8C0\000"
 4050      64384330 
 4050      00
 4051              	.LASF168:
 4052 0986 72657376 		.ascii	"resvd34\000"
ARM GAS  /tmp/cc3Asyhh.s 			page 80


 4052      64333400 
 4053              	.LASF264:
 4054 098e 63685379 		.ascii	"chSysInit\000"
 4054      73496E69 
 4054      7400
 4055              	.LASF15:
 4056 0998 75696E74 		.ascii	"uint32_t\000"
 4056      33325F74 
 4056      00
 4057              	.LASF105:
 4058 09a1 75736265 		.ascii	"usbep_t\000"
 4058      705F7400 
 4059              	.LASF245:
 4060 09a9 5344555F 		.ascii	"SDU_STOP\000"
 4060      53544F50 
 4060      00
 4061              	.LASF48:
 4062 09b2 54687265 		.ascii	"ThreadsQueue\000"
 4062      61647351 
 4062      75657565 
 4062      00
 4063              	.LASF17:
 4064 09bf 75696E74 		.ascii	"uint_fast16_t\000"
 4064      5F666173 
 4064      7431365F 
 4064      7400
 4065              	.LASF122:
 4066 09cd 5553425F 		.ascii	"USB_EVENT_SUSPEND\000"
 4066      4556454E 
 4066      545F5355 
 4066      5350454E 
 4066      4400
 4067              	.LASF64:
 4068 09df 7264796D 		.ascii	"rdymsg\000"
 4068      736700
 4069              	.LASF4:
 4070 09e6 73686F72 		.ascii	"short unsigned int\000"
 4070      7420756E 
 4070      7369676E 
 4070      65642069 
 4070      6E7400
 4071              	.LASF187:
 4072 09f9 44535453 		.ascii	"DSTS\000"
 4072      00
 4073              	.LASF240:
 4074 09fe 6765745F 		.ascii	"get_descriptor_cb\000"
 4074      64657363 
 4074      72697074 
 4074      6F725F63 
 4074      6200
 4075              	.LASF78:
 4076 0a10 496E7075 		.ascii	"InputQueue\000"
 4076      74517565 
 4076      756500
 4077              	.LASF35:
 4078 0a1b 705F7374 		.ascii	"p_stklimit\000"
 4078      6B6C696D 
ARM GAS  /tmp/cc3Asyhh.s 			page 81


 4078      697400
 4079              	.LASF178:
 4080 0a26 48505458 		.ascii	"HPTXSTS\000"
 4080      53545300 
 4081              	.LASF61:
 4082 0a2e 656C5F6D 		.ascii	"el_mask\000"
 4082      61736B00 
 4083              	.LASF170:
 4084 0a36 72657376 		.ascii	"resvd58\000"
 4084      64353800 
 4085              	.LASF116:
 4086 0a3e 5553425F 		.ascii	"USB_EP0_SENDING_STS\000"
 4086      4550305F 
 4086      53454E44 
 4086      494E475F 
 4086      53545300 
 4087              	.LASF175:
 4088 0a52 48464952 		.ascii	"HFIR\000"
 4088      00
 4089              	.LASF114:
 4090 0a57 5553425F 		.ascii	"USB_EP0_WAITING_STS\000"
 4090      4550305F 
 4090      57414954 
 4090      494E475F 
 4090      53545300 
 4091              	.LASF34:
 4092 0a6b 705F6E61 		.ascii	"p_name\000"
 4092      6D6500
 4093              	.LASF57:
 4094 0a72 6D5F6E65 		.ascii	"m_next\000"
 4094      787400
 4095              	.LASF100:
 4096 0a79 706D6E65 		.ascii	"pmnext\000"
 4096      787400
 4097              	.LASF217:
 4098 0a80 74787175 		.ascii	"txqueued\000"
 4098      65756564 
 4098      00
 4099              	.LASF158:
 4100 0a89 47555342 		.ascii	"GUSBCFG\000"
 4100      43464700 
 4101              	.LASF115:
 4102 0a91 5553425F 		.ascii	"USB_EP0_RX\000"
 4102      4550305F 
 4102      525800
 4103              	.LASF173:
 4104 0a9c 72657376 		.ascii	"resvd140\000"
 4104      64313430 
 4104      00
 4105              	.LASF43:
 4106 0aa5 705F6D73 		.ascii	"p_msg\000"
 4106      6700
 4107              	.LASF60:
 4108 0aab 656C5F6C 		.ascii	"el_listener\000"
 4108      69737465 
 4108      6E657200 
 4109              	.LASF36:
ARM GAS  /tmp/cc3Asyhh.s 			page 82


 4110 0ab7 705F7374 		.ascii	"p_state\000"
 4110      61746500 
 4111              		.ident	"GCC: (GNU Tools for ARM Embedded Processors) 4.7.3 20130312 (release) [ARM/embedded-4_7-br
ARM GAS  /tmp/cc3Asyhh.s 			page 83


DEFINED SYMBOLS
                            *ABS*:00000000 main.c
     /tmp/cc3Asyhh.s:19     .text.startup.main:00000000 $t
     /tmp/cc3Asyhh.s:25     .text.startup.main:00000000 main
     /tmp/cc3Asyhh.s:66     .text.startup.main:00000028 $d
     /tmp/cc3Asyhh.s:71     .data.j.8599:00000000 $d
     /tmp/cc3Asyhh.s:75     .data.j.8599:00000000 j.8599
                     .debug_frame:00000010 $d
     /tmp/cc3Asyhh.s:70     .text.startup.main:0000002c $t

UNDEFINED SYMBOLS
halInit
chSysInit
myUSBinit
chThdSleep
isUsbActive
send_data
