ARM GAS  /tmp/ccwFXcPn.s 			page 1


   1              		.syntax unified
   2              		.cpu cortex-m4
   3              		.fpu softvfp
   4              		.eabi_attribute 20, 1
   5              		.eabi_attribute 21, 1
   6              		.eabi_attribute 23, 3
   7              		.eabi_attribute 24, 1
   8              		.eabi_attribute 25, 1
   9              		.eabi_attribute 26, 1
  10              		.eabi_attribute 30, 2
  11              		.eabi_attribute 34, 1
  12              		.eabi_attribute 18, 4
  13              		.thumb
  14              		.file	"main.c"
  15              		.text
  16              	.Ltext0:
  17              		.cfi_sections	.debug_frame
  18              		.section	.text.startup.main,"ax",%progbits
  19              		.align	2
  20              		.p2align 4,,15
  21              		.global	main
  22              		.thumb
  23              		.thumb_func
  24              		.type	main, %function
  25              	main:
  26              	.LFB118:
  27              		.file 1 "main.c"
  28              		.loc 1 23 0
  29              		.cfi_startproc
  30              		@ args = 0, pretend = 0, frame = 0
  31              		@ frame_needed = 0, uses_anonymous_args = 0
  32 0000 08B5     		push	{r3, lr}
  33              	.LCFI0:
  34              		.cfi_def_cfa_offset 8
  35              		.cfi_offset 3, -8
  36              		.cfi_offset 14, -4
  37              		.loc 1 32 0
  38 0002 FFF7FEFF 		bl	halInit
  39              	.LVL0:
  40              		.loc 1 33 0
  41 0006 FFF7FEFF 		bl	chSysInit
  42              	.LVL1:
  43              		.loc 1 39 0
  44 000a FFF7FEFF 		bl	myUSBinit
  45              	.LVL2:
  46 000e 0B49     		ldr	r1, .L8
  47 0010 0023     		movs	r3, #0
  48              	.LVL3:
  49              	.L2:
  50 0012 5A1C     		adds	r2, r3, #1
  51              		.loc 1 46 0 discriminator 2
  52 0014 CB54     		strb	r3, [r1, r3]
  53 0016 0233     		adds	r3, r3, #2
  54              		.loc 1 45 0 discriminator 2
  55 0018 202B     		cmp	r3, #32
  56              		.loc 1 46 0 discriminator 2
  57 001a 8A54     		strb	r2, [r1, r2]
ARM GAS  /tmp/ccwFXcPn.s 			page 2


  58              		.loc 1 45 0 discriminator 2
  59 001c F9D1     		bne	.L2
  60              	.L6:
  61              		.loc 1 54 0
  62 001e 0748     		ldr	r0, .L8
  63 0020 FFF7FEFF 		bl	send_data
  64              	.LVL4:
  65              		.loc 1 56 0
  66 0024 4FF47A70 		mov	r0, #1000
  67 0028 FFF7FEFF 		bl	chThdSleep
  68              	.LVL5:
  69              		.loc 1 54 0
  70 002c 0348     		ldr	r0, .L8
  71 002e FFF7FEFF 		bl	send_data
  72              	.LVL6:
  73              		.loc 1 56 0
  74 0032 4FF47A70 		mov	r0, #1000
  75 0036 FFF7FEFF 		bl	chThdSleep
  76              	.LVL7:
  77 003a F0E7     		b	.L6
  78              	.L9:
  79              		.align	2
  80              	.L8:
  81 003c 00000000 		.word	.LANCHOR0
  82              		.cfi_endproc
  83              	.LFE118:
  84              		.size	main, .-main
  85              		.global	transferBuf
  86              		.section	.bss.transferBuf,"aw",%nobits
  87              		.align	2
  88              		.set	.LANCHOR0,. + 0
  89              		.type	transferBuf, %object
  90              		.size	transferBuf, 32
  91              	transferBuf:
  92 0000 00000000 		.space	32
  92      00000000 
  92      00000000 
  92      00000000 
  92      00000000 
  93              		.text
  94              	.Letext0:
  95              		.file 2 "/opt/gcc-arm-none-eabi-4_7-2013q1/bin/../lib/gcc/arm-none-eabi/4.7.3/include/stddef.h"
  96              		.file 3 "/opt/gcc-arm-none-eabi-4_7-2013q1/bin/../lib/gcc/arm-none-eabi/4.7.3/../../../../arm-none
  97              		.file 4 "/home/snake/STM_Library/STM32F4/embedded/ChibiOS/ChibiOS_2.5.0/os/ports/GCC/ARMCMx/chtype
  98              		.file 5 "/home/snake/STM_Library/STM32F4/embedded/ChibiOS/ChibiOS_2.5.0/os/hal/include/usb.h"
  99              		.file 6 "usbdescriptor.h"
 100              		.file 7 "/home/snake/STM_Library/STM32F4/embedded/ChibiOS/ChibiOS_2.5.0/os/ports/common/ARMCMx/CMS
 101              		.file 8 "/home/snake/STM_Library/STM32F4/embedded/ChibiOS/ChibiOS_2.5.0/os/hal/include/hal.h"
 102              		.file 9 "/home/snake/STM_Library/STM32F4/embedded/ChibiOS/ChibiOS_2.5.0/os/kernel/include/chsys.h"
 103              		.file 10 "USB.h"
 104              		.file 11 "/home/snake/STM_Library/STM32F4/embedded/ChibiOS/ChibiOS_2.5.0/os/kernel/include/chthrea
 105              		.section	.debug_info,"",%progbits
 106              	.Ldebug_info0:
 107 0000 1F030000 		.4byte	0x31f
 108 0004 0200     		.2byte	0x2
 109 0006 00000000 		.4byte	.Ldebug_abbrev0
 110 000a 04       		.byte	0x4
ARM GAS  /tmp/ccwFXcPn.s 			page 3


 111 000b 01       		.uleb128 0x1
 112 000c C5010000 		.4byte	.LASF35
 113 0010 01       		.byte	0x1
 114 0011 83010000 		.4byte	.LASF36
 115 0015 4B000000 		.4byte	.LASF37
 116 0019 00000000 		.4byte	.Ldebug_ranges0+0
 117 001d 00000000 		.4byte	0
 118 0021 00000000 		.4byte	0
 119 0025 00000000 		.4byte	.Ldebug_line0
 120 0029 02       		.uleb128 0x2
 121 002a 2D000000 		.4byte	.LASF11
 122 002e 02       		.byte	0x2
 123 002f D5       		.byte	0xd5
 124 0030 34000000 		.4byte	0x34
 125 0034 03       		.uleb128 0x3
 126 0035 04       		.byte	0x4
 127 0036 07       		.byte	0x7
 128 0037 2C010000 		.4byte	.LASF0
 129 003b 03       		.uleb128 0x3
 130 003c 01       		.byte	0x1
 131 003d 06       		.byte	0x6
 132 003e 46020000 		.4byte	.LASF1
 133 0042 03       		.uleb128 0x3
 134 0043 01       		.byte	0x1
 135 0044 08       		.byte	0x8
 136 0045 BD000000 		.4byte	.LASF2
 137 0049 03       		.uleb128 0x3
 138 004a 02       		.byte	0x2
 139 004b 05       		.byte	0x5
 140 004c 94010000 		.4byte	.LASF3
 141 0050 03       		.uleb128 0x3
 142 0051 02       		.byte	0x2
 143 0052 07       		.byte	0x7
 144 0053 E8000000 		.4byte	.LASF4
 145 0057 04       		.uleb128 0x4
 146 0058 04       		.byte	0x4
 147 0059 05       		.byte	0x5
 148 005a 696E7400 		.ascii	"int\000"
 149 005e 03       		.uleb128 0x3
 150 005f 08       		.byte	0x8
 151 0060 05       		.byte	0x5
 152 0061 75010000 		.4byte	.LASF5
 153 0065 03       		.uleb128 0x3
 154 0066 08       		.byte	0x8
 155 0067 07       		.byte	0x7
 156 0068 5F020000 		.4byte	.LASF6
 157 006c 03       		.uleb128 0x3
 158 006d 04       		.byte	0x4
 159 006e 05       		.byte	0x5
 160 006f 21020000 		.4byte	.LASF7
 161 0073 03       		.uleb128 0x3
 162 0074 04       		.byte	0x4
 163 0075 07       		.byte	0x7
 164 0076 6C010000 		.4byte	.LASF8
 165 007a 03       		.uleb128 0x3
 166 007b 04       		.byte	0x4
 167 007c 07       		.byte	0x7
ARM GAS  /tmp/ccwFXcPn.s 			page 4


 168 007d D6000000 		.4byte	.LASF9
 169 0081 03       		.uleb128 0x3
 170 0082 01       		.byte	0x1
 171 0083 08       		.byte	0x8
 172 0084 39010000 		.4byte	.LASF10
 173 0088 02       		.uleb128 0x2
 174 0089 3E010000 		.4byte	.LASF12
 175 008d 03       		.byte	0x3
 176 008e 2A       		.byte	0x2a
 177 008f 42000000 		.4byte	0x42
 178 0093 02       		.uleb128 0x2
 179 0094 BC010000 		.4byte	.LASF13
 180 0098 03       		.byte	0x3
 181 0099 36       		.byte	0x36
 182 009a 50000000 		.4byte	0x50
 183 009e 02       		.uleb128 0x2
 184 009f 64010000 		.4byte	.LASF14
 185 00a3 03       		.byte	0x3
 186 00a4 4F       		.byte	0x4f
 187 00a5 6C000000 		.4byte	0x6c
 188 00a9 02       		.uleb128 0x2
 189 00aa FB000000 		.4byte	.LASF15
 190 00ae 03       		.byte	0x3
 191 00af 50       		.byte	0x50
 192 00b0 7A000000 		.4byte	0x7a
 193 00b4 02       		.uleb128 0x2
 194 00b5 34000000 		.4byte	.LASF16
 195 00b9 04       		.byte	0x4
 196 00ba 30       		.byte	0x30
 197 00bb A9000000 		.4byte	0xa9
 198 00bf 05       		.uleb128 0x5
 199 00c0 04       		.byte	0x4
 200 00c1 88000000 		.4byte	0x88
 201 00c5 05       		.uleb128 0x5
 202 00c6 04       		.byte	0x4
 203 00c7 CB000000 		.4byte	0xcb
 204 00cb 06       		.uleb128 0x6
 205 00cc 88000000 		.4byte	0x88
 206 00d0 07       		.uleb128 0x7
 207 00d1 88000000 		.4byte	0x88
 208 00d5 E0000000 		.4byte	0xe0
 209 00d9 08       		.uleb128 0x8
 210 00da 73000000 		.4byte	0x73
 211 00de 0B       		.byte	0xb
 212 00df 00       		.byte	0
 213 00e0 09       		.uleb128 0x9
 214 00e1 9E000000 		.4byte	0x9e
 215 00e5 0A       		.uleb128 0xa
 216 00e6 08       		.byte	0x8
 217 00e7 05       		.byte	0x5
 218 00e8 0101     		.2byte	0x101
 219 00ea 0D010000 		.4byte	0x10d
 220 00ee 0B       		.uleb128 0xb
 221 00ef 7E000000 		.4byte	.LASF17
 222 00f3 05       		.byte	0x5
 223 00f4 0501     		.2byte	0x105
 224 00f6 29000000 		.4byte	0x29
ARM GAS  /tmp/ccwFXcPn.s 			page 5


 225 00fa 02       		.byte	0x2
 226 00fb 23       		.byte	0x23
 227 00fc 00       		.uleb128 0
 228 00fd 0B       		.uleb128 0xb
 229 00fe 86000000 		.4byte	.LASF18
 230 0102 05       		.byte	0x5
 231 0103 0901     		.2byte	0x109
 232 0105 C5000000 		.4byte	0xc5
 233 0109 02       		.byte	0x2
 234 010a 23       		.byte	0x23
 235 010b 04       		.uleb128 0x4
 236 010c 00       		.byte	0
 237 010d 0C       		.uleb128 0xc
 238 010e AF000000 		.4byte	.LASF19
 239 0112 05       		.byte	0x5
 240 0113 0A01     		.2byte	0x10a
 241 0115 E5000000 		.4byte	0xe5
 242 0119 06       		.uleb128 0x6
 243 011a 0D010000 		.4byte	0x10d
 244 011e 0D       		.uleb128 0xd
 245 011f 01       		.byte	0x1
 246 0120 1B010000 		.4byte	.LASF38
 247 0124 01       		.byte	0x1
 248 0125 17       		.byte	0x17
 249 0126 01       		.byte	0x1
 250 0127 57000000 		.4byte	0x57
 251 012b 00000000 		.4byte	.LFB118
 252 012f 40000000 		.4byte	.LFE118
 253 0133 00000000 		.4byte	.LLST0
 254 0137 01       		.byte	0x1
 255 0138 B9010000 		.4byte	0x1b9
 256 013c 0E       		.uleb128 0xe
 257 013d 6900     		.ascii	"i\000"
 258 013f 01       		.byte	0x1
 259 0140 2C       		.byte	0x2c
 260 0141 93000000 		.4byte	0x93
 261 0145 20000000 		.4byte	.LLST1
 262 0149 0F       		.uleb128 0xf
 263 014a 06000000 		.4byte	.LVL0
 264 014e DF020000 		.4byte	0x2df
 265 0152 0F       		.uleb128 0xf
 266 0153 0A000000 		.4byte	.LVL1
 267 0157 E9020000 		.4byte	0x2e9
 268 015b 0F       		.uleb128 0xf
 269 015c 0E000000 		.4byte	.LVL2
 270 0160 F3020000 		.4byte	0x2f3
 271 0164 10       		.uleb128 0x10
 272 0165 24000000 		.4byte	.LVL4
 273 0169 FD020000 		.4byte	0x2fd
 274 016d 7B010000 		.4byte	0x17b
 275 0171 11       		.uleb128 0x11
 276 0172 01       		.byte	0x1
 277 0173 50       		.byte	0x50
 278 0174 05       		.byte	0x5
 279 0175 03       		.byte	0x3
 280 0176 00000000 		.4byte	.LANCHOR0
 281 017a 00       		.byte	0
ARM GAS  /tmp/ccwFXcPn.s 			page 6


 282 017b 10       		.uleb128 0x10
 283 017c 2C000000 		.4byte	.LVL5
 284 0180 11030000 		.4byte	0x311
 285 0184 90010000 		.4byte	0x190
 286 0188 11       		.uleb128 0x11
 287 0189 01       		.byte	0x1
 288 018a 50       		.byte	0x50
 289 018b 03       		.byte	0x3
 290 018c 0A       		.byte	0xa
 291 018d E803     		.2byte	0x3e8
 292 018f 00       		.byte	0
 293 0190 10       		.uleb128 0x10
 294 0191 32000000 		.4byte	.LVL6
 295 0195 FD020000 		.4byte	0x2fd
 296 0199 A7010000 		.4byte	0x1a7
 297 019d 11       		.uleb128 0x11
 298 019e 01       		.byte	0x1
 299 019f 50       		.byte	0x50
 300 01a0 05       		.byte	0x5
 301 01a1 03       		.byte	0x3
 302 01a2 00000000 		.4byte	.LANCHOR0
 303 01a6 00       		.byte	0
 304 01a7 12       		.uleb128 0x12
 305 01a8 3A000000 		.4byte	.LVL7
 306 01ac 11030000 		.4byte	0x311
 307 01b0 11       		.uleb128 0x11
 308 01b1 01       		.byte	0x1
 309 01b2 50       		.byte	0x50
 310 01b3 03       		.byte	0x3
 311 01b4 0A       		.byte	0xa
 312 01b5 E803     		.2byte	0x3e8
 313 01b7 00       		.byte	0
 314 01b8 00       		.byte	0
 315 01b9 07       		.uleb128 0x7
 316 01ba 88000000 		.4byte	0x88
 317 01be C9010000 		.4byte	0x1c9
 318 01c2 08       		.uleb128 0x8
 319 01c3 73000000 		.4byte	0x73
 320 01c7 11       		.byte	0x11
 321 01c8 00       		.byte	0
 322 01c9 13       		.uleb128 0x13
 323 01ca 2A020000 		.4byte	.LASF20
 324 01ce 06       		.byte	0x6
 325 01cf 10       		.byte	0x10
 326 01d0 D4010000 		.4byte	0x1d4
 327 01d4 06       		.uleb128 0x6
 328 01d5 B9010000 		.4byte	0x1b9
 329 01d9 13       		.uleb128 0x13
 330 01da 90000000 		.4byte	.LASF21
 331 01de 06       		.byte	0x6
 332 01df 26       		.byte	0x26
 333 01e0 19010000 		.4byte	0x119
 334 01e4 07       		.uleb128 0x7
 335 01e5 88000000 		.4byte	0x88
 336 01e9 F4010000 		.4byte	0x1f4
 337 01ed 08       		.uleb128 0x8
 338 01ee 73000000 		.4byte	0x73
ARM GAS  /tmp/ccwFXcPn.s 			page 7


 339 01f2 1F       		.byte	0x1f
 340 01f3 00       		.byte	0
 341 01f4 13       		.uleb128 0x13
 342 01f5 00000000 		.4byte	.LASF22
 343 01f9 06       		.byte	0x6
 344 01fa 3A       		.byte	0x3a
 345 01fb FF010000 		.4byte	0x1ff
 346 01ff 06       		.uleb128 0x6
 347 0200 E4010000 		.4byte	0x1e4
 348 0204 13       		.uleb128 0x13
 349 0205 46010000 		.4byte	.LASF23
 350 0209 06       		.byte	0x6
 351 020a 5D       		.byte	0x5d
 352 020b 19010000 		.4byte	0x119
 353 020f 07       		.uleb128 0x7
 354 0210 88000000 		.4byte	0x88
 355 0214 1F020000 		.4byte	0x21f
 356 0218 08       		.uleb128 0x8
 357 0219 73000000 		.4byte	0x73
 358 021d 03       		.byte	0x3
 359 021e 00       		.byte	0
 360 021f 13       		.uleb128 0x13
 361 0220 9E010000 		.4byte	.LASF24
 362 0224 06       		.byte	0x6
 363 0225 65       		.byte	0x65
 364 0226 2A020000 		.4byte	0x22a
 365 022a 06       		.uleb128 0x6
 366 022b 0F020000 		.4byte	0x20f
 367 022f 07       		.uleb128 0x7
 368 0230 88000000 		.4byte	0x88
 369 0234 3F020000 		.4byte	0x23f
 370 0238 08       		.uleb128 0x8
 371 0239 73000000 		.4byte	0x73
 372 023d 25       		.byte	0x25
 373 023e 00       		.byte	0
 374 023f 13       		.uleb128 0x13
 375 0240 52020000 		.4byte	.LASF25
 376 0244 06       		.byte	0x6
 377 0245 6E       		.byte	0x6e
 378 0246 4A020000 		.4byte	0x24a
 379 024a 06       		.uleb128 0x6
 380 024b 2F020000 		.4byte	0x22f
 381 024f 07       		.uleb128 0x7
 382 0250 88000000 		.4byte	0x88
 383 0254 5F020000 		.4byte	0x25f
 384 0258 08       		.uleb128 0x8
 385 0259 73000000 		.4byte	0x73
 386 025d 2F       		.byte	0x2f
 387 025e 00       		.byte	0
 388 025f 13       		.uleb128 0x13
 389 0260 67000000 		.4byte	.LASF26
 390 0264 06       		.byte	0x6
 391 0265 79       		.byte	0x79
 392 0266 6A020000 		.4byte	0x26a
 393 026a 06       		.uleb128 0x6
 394 026b 4F020000 		.4byte	0x24f
 395 026f 13       		.uleb128 0x13
ARM GAS  /tmp/ccwFXcPn.s 			page 8


 396 0270 0E020000 		.4byte	.LASF27
 397 0274 06       		.byte	0x6
 398 0275 84       		.byte	0x84
 399 0276 7A020000 		.4byte	0x27a
 400 027a 06       		.uleb128 0x6
 401 027b D0000000 		.4byte	0xd0
 402 027f 07       		.uleb128 0x7
 403 0280 88000000 		.4byte	0x88
 404 0284 8F020000 		.4byte	0x28f
 405 0288 08       		.uleb128 0x8
 406 0289 73000000 		.4byte	0x73
 407 028d 21       		.byte	0x21
 408 028e 00       		.byte	0
 409 028f 13       		.uleb128 0x13
 410 0290 AD010000 		.4byte	.LASF28
 411 0294 06       		.byte	0x6
 412 0295 8F       		.byte	0x8f
 413 0296 9A020000 		.4byte	0x29a
 414 029a 06       		.uleb128 0x6
 415 029b 7F020000 		.4byte	0x27f
 416 029f 07       		.uleb128 0x7
 417 02a0 0D010000 		.4byte	0x10d
 418 02a4 AF020000 		.4byte	0x2af
 419 02a8 08       		.uleb128 0x8
 420 02a9 73000000 		.4byte	0x73
 421 02ad 04       		.byte	0x4
 422 02ae 00       		.byte	0
 423 02af 13       		.uleb128 0x13
 424 02b0 3E000000 		.4byte	.LASF29
 425 02b4 06       		.byte	0x6
 426 02b5 99       		.byte	0x99
 427 02b6 BA020000 		.4byte	0x2ba
 428 02ba 06       		.uleb128 0x6
 429 02bb 9F020000 		.4byte	0x29f
 430 02bf 14       		.uleb128 0x14
 431 02c0 04010000 		.4byte	.LASF30
 432 02c4 07       		.byte	0x7
 433 02c5 9806     		.2byte	0x698
 434 02c7 E0000000 		.4byte	0xe0
 435 02cb 01       		.byte	0x1
 436 02cc 01       		.byte	0x1
 437 02cd 15       		.uleb128 0x15
 438 02ce 20010000 		.4byte	.LASF31
 439 02d2 01       		.byte	0x1
 440 02d3 12       		.byte	0x12
 441 02d4 E4010000 		.4byte	0x1e4
 442 02d8 01       		.byte	0x1
 443 02d9 05       		.byte	0x5
 444 02da 03       		.byte	0x3
 445 02db 00000000 		.4byte	transferBuf
 446 02df 16       		.uleb128 0x16
 447 02e0 01       		.byte	0x1
 448 02e1 A7000000 		.4byte	.LASF32
 449 02e5 08       		.byte	0x8
 450 02e6 C8       		.byte	0xc8
 451 02e7 01       		.byte	0x1
 452 02e8 01       		.byte	0x1
ARM GAS  /tmp/ccwFXcPn.s 			page 9


 453 02e9 16       		.uleb128 0x16
 454 02ea 01       		.byte	0x1
 455 02eb 23000000 		.4byte	.LASF33
 456 02ef 09       		.byte	0x9
 457 02f0 EF       		.byte	0xef
 458 02f1 01       		.byte	0x1
 459 02f2 01       		.byte	0x1
 460 02f3 16       		.uleb128 0x16
 461 02f4 01       		.byte	0x1
 462 02f5 8A010000 		.4byte	.LASF34
 463 02f9 0A       		.byte	0xa
 464 02fa 12       		.byte	0x12
 465 02fb 01       		.byte	0x1
 466 02fc 01       		.byte	0x1
 467 02fd 17       		.uleb128 0x17
 468 02fe 01       		.byte	0x1
 469 02ff 11010000 		.4byte	.LASF39
 470 0303 0A       		.byte	0xa
 471 0304 15       		.byte	0x15
 472 0305 01       		.byte	0x1
 473 0306 01       		.byte	0x1
 474 0307 11030000 		.4byte	0x311
 475 030b 18       		.uleb128 0x18
 476 030c BF000000 		.4byte	0xbf
 477 0310 00       		.byte	0
 478 0311 19       		.uleb128 0x19
 479 0312 01       		.byte	0x1
 480 0313 CB000000 		.4byte	.LASF40
 481 0317 0B       		.byte	0xb
 482 0318 6901     		.2byte	0x169
 483 031a 01       		.byte	0x1
 484 031b 01       		.byte	0x1
 485 031c 18       		.uleb128 0x18
 486 031d B4000000 		.4byte	0xb4
 487 0321 00       		.byte	0
 488 0322 00       		.byte	0
 489              		.section	.debug_abbrev,"",%progbits
 490              	.Ldebug_abbrev0:
 491 0000 01       		.uleb128 0x1
 492 0001 11       		.uleb128 0x11
 493 0002 01       		.byte	0x1
 494 0003 25       		.uleb128 0x25
 495 0004 0E       		.uleb128 0xe
 496 0005 13       		.uleb128 0x13
 497 0006 0B       		.uleb128 0xb
 498 0007 03       		.uleb128 0x3
 499 0008 0E       		.uleb128 0xe
 500 0009 1B       		.uleb128 0x1b
 501 000a 0E       		.uleb128 0xe
 502 000b 55       		.uleb128 0x55
 503 000c 06       		.uleb128 0x6
 504 000d 11       		.uleb128 0x11
 505 000e 01       		.uleb128 0x1
 506 000f 52       		.uleb128 0x52
 507 0010 01       		.uleb128 0x1
 508 0011 10       		.uleb128 0x10
 509 0012 06       		.uleb128 0x6
ARM GAS  /tmp/ccwFXcPn.s 			page 10


 510 0013 00       		.byte	0
 511 0014 00       		.byte	0
 512 0015 02       		.uleb128 0x2
 513 0016 16       		.uleb128 0x16
 514 0017 00       		.byte	0
 515 0018 03       		.uleb128 0x3
 516 0019 0E       		.uleb128 0xe
 517 001a 3A       		.uleb128 0x3a
 518 001b 0B       		.uleb128 0xb
 519 001c 3B       		.uleb128 0x3b
 520 001d 0B       		.uleb128 0xb
 521 001e 49       		.uleb128 0x49
 522 001f 13       		.uleb128 0x13
 523 0020 00       		.byte	0
 524 0021 00       		.byte	0
 525 0022 03       		.uleb128 0x3
 526 0023 24       		.uleb128 0x24
 527 0024 00       		.byte	0
 528 0025 0B       		.uleb128 0xb
 529 0026 0B       		.uleb128 0xb
 530 0027 3E       		.uleb128 0x3e
 531 0028 0B       		.uleb128 0xb
 532 0029 03       		.uleb128 0x3
 533 002a 0E       		.uleb128 0xe
 534 002b 00       		.byte	0
 535 002c 00       		.byte	0
 536 002d 04       		.uleb128 0x4
 537 002e 24       		.uleb128 0x24
 538 002f 00       		.byte	0
 539 0030 0B       		.uleb128 0xb
 540 0031 0B       		.uleb128 0xb
 541 0032 3E       		.uleb128 0x3e
 542 0033 0B       		.uleb128 0xb
 543 0034 03       		.uleb128 0x3
 544 0035 08       		.uleb128 0x8
 545 0036 00       		.byte	0
 546 0037 00       		.byte	0
 547 0038 05       		.uleb128 0x5
 548 0039 0F       		.uleb128 0xf
 549 003a 00       		.byte	0
 550 003b 0B       		.uleb128 0xb
 551 003c 0B       		.uleb128 0xb
 552 003d 49       		.uleb128 0x49
 553 003e 13       		.uleb128 0x13
 554 003f 00       		.byte	0
 555 0040 00       		.byte	0
 556 0041 06       		.uleb128 0x6
 557 0042 26       		.uleb128 0x26
 558 0043 00       		.byte	0
 559 0044 49       		.uleb128 0x49
 560 0045 13       		.uleb128 0x13
 561 0046 00       		.byte	0
 562 0047 00       		.byte	0
 563 0048 07       		.uleb128 0x7
 564 0049 01       		.uleb128 0x1
 565 004a 01       		.byte	0x1
 566 004b 49       		.uleb128 0x49
ARM GAS  /tmp/ccwFXcPn.s 			page 11


 567 004c 13       		.uleb128 0x13
 568 004d 01       		.uleb128 0x1
 569 004e 13       		.uleb128 0x13
 570 004f 00       		.byte	0
 571 0050 00       		.byte	0
 572 0051 08       		.uleb128 0x8
 573 0052 21       		.uleb128 0x21
 574 0053 00       		.byte	0
 575 0054 49       		.uleb128 0x49
 576 0055 13       		.uleb128 0x13
 577 0056 2F       		.uleb128 0x2f
 578 0057 0B       		.uleb128 0xb
 579 0058 00       		.byte	0
 580 0059 00       		.byte	0
 581 005a 09       		.uleb128 0x9
 582 005b 35       		.uleb128 0x35
 583 005c 00       		.byte	0
 584 005d 49       		.uleb128 0x49
 585 005e 13       		.uleb128 0x13
 586 005f 00       		.byte	0
 587 0060 00       		.byte	0
 588 0061 0A       		.uleb128 0xa
 589 0062 13       		.uleb128 0x13
 590 0063 01       		.byte	0x1
 591 0064 0B       		.uleb128 0xb
 592 0065 0B       		.uleb128 0xb
 593 0066 3A       		.uleb128 0x3a
 594 0067 0B       		.uleb128 0xb
 595 0068 3B       		.uleb128 0x3b
 596 0069 05       		.uleb128 0x5
 597 006a 01       		.uleb128 0x1
 598 006b 13       		.uleb128 0x13
 599 006c 00       		.byte	0
 600 006d 00       		.byte	0
 601 006e 0B       		.uleb128 0xb
 602 006f 0D       		.uleb128 0xd
 603 0070 00       		.byte	0
 604 0071 03       		.uleb128 0x3
 605 0072 0E       		.uleb128 0xe
 606 0073 3A       		.uleb128 0x3a
 607 0074 0B       		.uleb128 0xb
 608 0075 3B       		.uleb128 0x3b
 609 0076 05       		.uleb128 0x5
 610 0077 49       		.uleb128 0x49
 611 0078 13       		.uleb128 0x13
 612 0079 38       		.uleb128 0x38
 613 007a 0A       		.uleb128 0xa
 614 007b 00       		.byte	0
 615 007c 00       		.byte	0
 616 007d 0C       		.uleb128 0xc
 617 007e 16       		.uleb128 0x16
 618 007f 00       		.byte	0
 619 0080 03       		.uleb128 0x3
 620 0081 0E       		.uleb128 0xe
 621 0082 3A       		.uleb128 0x3a
 622 0083 0B       		.uleb128 0xb
 623 0084 3B       		.uleb128 0x3b
ARM GAS  /tmp/ccwFXcPn.s 			page 12


 624 0085 05       		.uleb128 0x5
 625 0086 49       		.uleb128 0x49
 626 0087 13       		.uleb128 0x13
 627 0088 00       		.byte	0
 628 0089 00       		.byte	0
 629 008a 0D       		.uleb128 0xd
 630 008b 2E       		.uleb128 0x2e
 631 008c 01       		.byte	0x1
 632 008d 3F       		.uleb128 0x3f
 633 008e 0C       		.uleb128 0xc
 634 008f 03       		.uleb128 0x3
 635 0090 0E       		.uleb128 0xe
 636 0091 3A       		.uleb128 0x3a
 637 0092 0B       		.uleb128 0xb
 638 0093 3B       		.uleb128 0x3b
 639 0094 0B       		.uleb128 0xb
 640 0095 27       		.uleb128 0x27
 641 0096 0C       		.uleb128 0xc
 642 0097 49       		.uleb128 0x49
 643 0098 13       		.uleb128 0x13
 644 0099 11       		.uleb128 0x11
 645 009a 01       		.uleb128 0x1
 646 009b 12       		.uleb128 0x12
 647 009c 01       		.uleb128 0x1
 648 009d 40       		.uleb128 0x40
 649 009e 06       		.uleb128 0x6
 650 009f 9742     		.uleb128 0x2117
 651 00a1 0C       		.uleb128 0xc
 652 00a2 01       		.uleb128 0x1
 653 00a3 13       		.uleb128 0x13
 654 00a4 00       		.byte	0
 655 00a5 00       		.byte	0
 656 00a6 0E       		.uleb128 0xe
 657 00a7 34       		.uleb128 0x34
 658 00a8 00       		.byte	0
 659 00a9 03       		.uleb128 0x3
 660 00aa 08       		.uleb128 0x8
 661 00ab 3A       		.uleb128 0x3a
 662 00ac 0B       		.uleb128 0xb
 663 00ad 3B       		.uleb128 0x3b
 664 00ae 0B       		.uleb128 0xb
 665 00af 49       		.uleb128 0x49
 666 00b0 13       		.uleb128 0x13
 667 00b1 02       		.uleb128 0x2
 668 00b2 06       		.uleb128 0x6
 669 00b3 00       		.byte	0
 670 00b4 00       		.byte	0
 671 00b5 0F       		.uleb128 0xf
 672 00b6 898201   		.uleb128 0x4109
 673 00b9 00       		.byte	0
 674 00ba 11       		.uleb128 0x11
 675 00bb 01       		.uleb128 0x1
 676 00bc 31       		.uleb128 0x31
 677 00bd 13       		.uleb128 0x13
 678 00be 00       		.byte	0
 679 00bf 00       		.byte	0
 680 00c0 10       		.uleb128 0x10
ARM GAS  /tmp/ccwFXcPn.s 			page 13


 681 00c1 898201   		.uleb128 0x4109
 682 00c4 01       		.byte	0x1
 683 00c5 11       		.uleb128 0x11
 684 00c6 01       		.uleb128 0x1
 685 00c7 31       		.uleb128 0x31
 686 00c8 13       		.uleb128 0x13
 687 00c9 01       		.uleb128 0x1
 688 00ca 13       		.uleb128 0x13
 689 00cb 00       		.byte	0
 690 00cc 00       		.byte	0
 691 00cd 11       		.uleb128 0x11
 692 00ce 8A8201   		.uleb128 0x410a
 693 00d1 00       		.byte	0
 694 00d2 02       		.uleb128 0x2
 695 00d3 0A       		.uleb128 0xa
 696 00d4 9142     		.uleb128 0x2111
 697 00d6 0A       		.uleb128 0xa
 698 00d7 00       		.byte	0
 699 00d8 00       		.byte	0
 700 00d9 12       		.uleb128 0x12
 701 00da 898201   		.uleb128 0x4109
 702 00dd 01       		.byte	0x1
 703 00de 11       		.uleb128 0x11
 704 00df 01       		.uleb128 0x1
 705 00e0 31       		.uleb128 0x31
 706 00e1 13       		.uleb128 0x13
 707 00e2 00       		.byte	0
 708 00e3 00       		.byte	0
 709 00e4 13       		.uleb128 0x13
 710 00e5 34       		.uleb128 0x34
 711 00e6 00       		.byte	0
 712 00e7 03       		.uleb128 0x3
 713 00e8 0E       		.uleb128 0xe
 714 00e9 3A       		.uleb128 0x3a
 715 00ea 0B       		.uleb128 0xb
 716 00eb 3B       		.uleb128 0x3b
 717 00ec 0B       		.uleb128 0xb
 718 00ed 49       		.uleb128 0x49
 719 00ee 13       		.uleb128 0x13
 720 00ef 00       		.byte	0
 721 00f0 00       		.byte	0
 722 00f1 14       		.uleb128 0x14
 723 00f2 34       		.uleb128 0x34
 724 00f3 00       		.byte	0
 725 00f4 03       		.uleb128 0x3
 726 00f5 0E       		.uleb128 0xe
 727 00f6 3A       		.uleb128 0x3a
 728 00f7 0B       		.uleb128 0xb
 729 00f8 3B       		.uleb128 0x3b
 730 00f9 05       		.uleb128 0x5
 731 00fa 49       		.uleb128 0x49
 732 00fb 13       		.uleb128 0x13
 733 00fc 3F       		.uleb128 0x3f
 734 00fd 0C       		.uleb128 0xc
 735 00fe 3C       		.uleb128 0x3c
 736 00ff 0C       		.uleb128 0xc
 737 0100 00       		.byte	0
ARM GAS  /tmp/ccwFXcPn.s 			page 14


 738 0101 00       		.byte	0
 739 0102 15       		.uleb128 0x15
 740 0103 34       		.uleb128 0x34
 741 0104 00       		.byte	0
 742 0105 03       		.uleb128 0x3
 743 0106 0E       		.uleb128 0xe
 744 0107 3A       		.uleb128 0x3a
 745 0108 0B       		.uleb128 0xb
 746 0109 3B       		.uleb128 0x3b
 747 010a 0B       		.uleb128 0xb
 748 010b 49       		.uleb128 0x49
 749 010c 13       		.uleb128 0x13
 750 010d 3F       		.uleb128 0x3f
 751 010e 0C       		.uleb128 0xc
 752 010f 02       		.uleb128 0x2
 753 0110 0A       		.uleb128 0xa
 754 0111 00       		.byte	0
 755 0112 00       		.byte	0
 756 0113 16       		.uleb128 0x16
 757 0114 2E       		.uleb128 0x2e
 758 0115 00       		.byte	0
 759 0116 3F       		.uleb128 0x3f
 760 0117 0C       		.uleb128 0xc
 761 0118 03       		.uleb128 0x3
 762 0119 0E       		.uleb128 0xe
 763 011a 3A       		.uleb128 0x3a
 764 011b 0B       		.uleb128 0xb
 765 011c 3B       		.uleb128 0x3b
 766 011d 0B       		.uleb128 0xb
 767 011e 27       		.uleb128 0x27
 768 011f 0C       		.uleb128 0xc
 769 0120 3C       		.uleb128 0x3c
 770 0121 0C       		.uleb128 0xc
 771 0122 00       		.byte	0
 772 0123 00       		.byte	0
 773 0124 17       		.uleb128 0x17
 774 0125 2E       		.uleb128 0x2e
 775 0126 01       		.byte	0x1
 776 0127 3F       		.uleb128 0x3f
 777 0128 0C       		.uleb128 0xc
 778 0129 03       		.uleb128 0x3
 779 012a 0E       		.uleb128 0xe
 780 012b 3A       		.uleb128 0x3a
 781 012c 0B       		.uleb128 0xb
 782 012d 3B       		.uleb128 0x3b
 783 012e 0B       		.uleb128 0xb
 784 012f 27       		.uleb128 0x27
 785 0130 0C       		.uleb128 0xc
 786 0131 3C       		.uleb128 0x3c
 787 0132 0C       		.uleb128 0xc
 788 0133 01       		.uleb128 0x1
 789 0134 13       		.uleb128 0x13
 790 0135 00       		.byte	0
 791 0136 00       		.byte	0
 792 0137 18       		.uleb128 0x18
 793 0138 05       		.uleb128 0x5
 794 0139 00       		.byte	0
ARM GAS  /tmp/ccwFXcPn.s 			page 15


 795 013a 49       		.uleb128 0x49
 796 013b 13       		.uleb128 0x13
 797 013c 00       		.byte	0
 798 013d 00       		.byte	0
 799 013e 19       		.uleb128 0x19
 800 013f 2E       		.uleb128 0x2e
 801 0140 01       		.byte	0x1
 802 0141 3F       		.uleb128 0x3f
 803 0142 0C       		.uleb128 0xc
 804 0143 03       		.uleb128 0x3
 805 0144 0E       		.uleb128 0xe
 806 0145 3A       		.uleb128 0x3a
 807 0146 0B       		.uleb128 0xb
 808 0147 3B       		.uleb128 0x3b
 809 0148 05       		.uleb128 0x5
 810 0149 27       		.uleb128 0x27
 811 014a 0C       		.uleb128 0xc
 812 014b 3C       		.uleb128 0x3c
 813 014c 0C       		.uleb128 0xc
 814 014d 00       		.byte	0
 815 014e 00       		.byte	0
 816 014f 00       		.byte	0
 817              		.section	.debug_loc,"",%progbits
 818              	.Ldebug_loc0:
 819              	.LLST0:
 820 0000 00000000 		.4byte	.LFB118
 821 0004 02000000 		.4byte	.LCFI0
 822 0008 0200     		.2byte	0x2
 823 000a 7D       		.byte	0x7d
 824 000b 00       		.sleb128 0
 825 000c 02000000 		.4byte	.LCFI0
 826 0010 40000000 		.4byte	.LFE118
 827 0014 0200     		.2byte	0x2
 828 0016 7D       		.byte	0x7d
 829 0017 08       		.sleb128 8
 830 0018 00000000 		.4byte	0
 831 001c 00000000 		.4byte	0
 832              	.LLST1:
 833 0020 0E000000 		.4byte	.LVL2
 834 0024 12000000 		.4byte	.LVL3
 835 0028 0200     		.2byte	0x2
 836 002a 30       		.byte	0x30
 837 002b 9F       		.byte	0x9f
 838 002c 00000000 		.4byte	0
 839 0030 00000000 		.4byte	0
 840              		.section	.debug_aranges,"",%progbits
 841 0000 1C000000 		.4byte	0x1c
 842 0004 0200     		.2byte	0x2
 843 0006 00000000 		.4byte	.Ldebug_info0
 844 000a 04       		.byte	0x4
 845 000b 00       		.byte	0
 846 000c 0000     		.2byte	0
 847 000e 0000     		.2byte	0
 848 0010 00000000 		.4byte	.LFB118
 849 0014 40000000 		.4byte	.LFE118-.LFB118
 850 0018 00000000 		.4byte	0
 851 001c 00000000 		.4byte	0
ARM GAS  /tmp/ccwFXcPn.s 			page 16


 852              		.section	.debug_ranges,"",%progbits
 853              	.Ldebug_ranges0:
 854 0000 00000000 		.4byte	.LFB118
 855 0004 40000000 		.4byte	.LFE118
 856 0008 00000000 		.4byte	0
 857 000c 00000000 		.4byte	0
 858              		.section	.debug_line,"",%progbits
 859              	.Ldebug_line0:
 860 0000 D6020000 		.section	.debug_str,"MS",%progbits,1
 860      0200A202 
 860      00000201 
 860      FB0E0D00 
 860      01010101 
 861              	.LASF22:
 862 0000 76636F6D 		.ascii	"vcom_configuration_descriptor_data\000"
 862      5F636F6E 
 862      66696775 
 862      72617469 
 862      6F6E5F64 
 863              	.LASF33:
 864 0023 63685379 		.ascii	"chSysInit\000"
 864      73496E69 
 864      7400
 865              	.LASF11:
 866 002d 73697A65 		.ascii	"size_t\000"
 866      5F7400
 867              	.LASF16:
 868 0034 73797374 		.ascii	"systime_t\000"
 868      696D655F 
 868      7400
 869              	.LASF29:
 870 003e 76636F6D 		.ascii	"vcom_strings\000"
 870      5F737472 
 870      696E6773 
 870      00
 871              	.LASF37:
 872 004b 2F686F6D 		.ascii	"/home/snake/STM_Library/USB\000"
 872      652F736E 
 872      616B652F 
 872      53544D5F 
 872      4C696272 
 873              	.LASF26:
 874 0067 73747269 		.ascii	"stringDeviceDescriptor\000"
 874      6E674465 
 874      76696365 
 874      44657363 
 874      72697074 
 875              	.LASF17:
 876 007e 75645F73 		.ascii	"ud_size\000"
 876      697A6500 
 877              	.LASF18:
 878 0086 75645F73 		.ascii	"ud_string\000"
 878      7472696E 
 878      6700
 879              	.LASF21:
 880 0090 76636F6D 		.ascii	"vcom_device_descriptor\000"
 880      5F646576 
ARM GAS  /tmp/ccwFXcPn.s 			page 17


 880      6963655F 
 880      64657363 
 880      72697074 
 881              	.LASF32:
 882 00a7 68616C49 		.ascii	"halInit\000"
 882      6E697400 
 883              	.LASF19:
 884 00af 55534244 		.ascii	"USBDescriptor\000"
 884      65736372 
 884      6970746F 
 884      7200
 885              	.LASF2:
 886 00bd 756E7369 		.ascii	"unsigned char\000"
 886      676E6564 
 886      20636861 
 886      7200
 887              	.LASF40:
 888 00cb 63685468 		.ascii	"chThdSleep\000"
 888      64536C65 
 888      657000
 889              	.LASF9:
 890 00d6 6C6F6E67 		.ascii	"long unsigned int\000"
 890      20756E73 
 890      69676E65 
 890      6420696E 
 890      7400
 891              	.LASF4:
 892 00e8 73686F72 		.ascii	"short unsigned int\000"
 892      7420756E 
 892      7369676E 
 892      65642069 
 892      6E7400
 893              	.LASF15:
 894 00fb 75696E74 		.ascii	"uint32_t\000"
 894      33325F74 
 894      00
 895              	.LASF30:
 896 0104 49544D5F 		.ascii	"ITM_RxBuffer\000"
 896      52784275 
 896      66666572 
 896      00
 897              	.LASF39:
 898 0111 73656E64 		.ascii	"send_data\000"
 898      5F646174 
 898      6100
 899              	.LASF38:
 900 011b 6D61696E 		.ascii	"main\000"
 900      00
 901              	.LASF31:
 902 0120 7472616E 		.ascii	"transferBuf\000"
 902      73666572 
 902      42756600 
 903              	.LASF0:
 904 012c 756E7369 		.ascii	"unsigned int\000"
 904      676E6564 
 904      20696E74 
 904      00
ARM GAS  /tmp/ccwFXcPn.s 			page 18


 905              	.LASF10:
 906 0139 63686172 		.ascii	"char\000"
 906      00
 907              	.LASF12:
 908 013e 75696E74 		.ascii	"uint8_t\000"
 908      385F7400 
 909              	.LASF23:
 910 0146 76636F6D 		.ascii	"vcom_configuration_descriptor\000"
 910      5F636F6E 
 910      66696775 
 910      72617469 
 910      6F6E5F64 
 911              	.LASF14:
 912 0164 696E7433 		.ascii	"int32_t\000"
 912      325F7400 
 913              	.LASF8:
 914 016c 73697A65 		.ascii	"sizetype\000"
 914      74797065 
 914      00
 915              	.LASF5:
 916 0175 6C6F6E67 		.ascii	"long long int\000"
 916      206C6F6E 
 916      6720696E 
 916      7400
 917              	.LASF36:
 918 0183 6D61696E 		.ascii	"main.c\000"
 918      2E6300
 919              	.LASF34:
 920 018a 6D795553 		.ascii	"myUSBinit\000"
 920      42696E69 
 920      7400
 921              	.LASF3:
 922 0194 73686F72 		.ascii	"short int\000"
 922      7420696E 
 922      7400
 923              	.LASF24:
 924 019e 73747269 		.ascii	"stringLanguage\000"
 924      6E674C61 
 924      6E677561 
 924      676500
 925              	.LASF28:
 926 01ad 73747269 		.ascii	"stringNotFound\000"
 926      6E674E6F 
 926      74466F75 
 926      6E6400
 927              	.LASF13:
 928 01bc 75696E74 		.ascii	"uint16_t\000"
 928      31365F74 
 928      00
 929              	.LASF35:
 930 01c5 474E5520 		.ascii	"GNU C 4.7.3 20130312 (release) [ARM/embedded-4_7-br"
 930      4320342E 
 930      372E3320 
 930      32303133 
 930      30333132 
 931 01f8 616E6368 		.ascii	"anch revision 196615]\000"
 931      20726576 
ARM GAS  /tmp/ccwFXcPn.s 			page 19


 931      6973696F 
 931      6E203139 
 931      36363135 
 932              	.LASF27:
 933 020e 73747269 		.ascii	"stringSerialNumber\000"
 933      6E675365 
 933      7269616C 
 933      4E756D62 
 933      657200
 934              	.LASF7:
 935 0221 6C6F6E67 		.ascii	"long int\000"
 935      20696E74 
 935      00
 936              	.LASF20:
 937 022a 76636F6D 		.ascii	"vcom_device_descriptor_data\000"
 937      5F646576 
 937      6963655F 
 937      64657363 
 937      72697074 
 938              	.LASF1:
 939 0246 7369676E 		.ascii	"signed char\000"
 939      65642063 
 939      68617200 
 940              	.LASF25:
 941 0252 73747269 		.ascii	"stringVendor\000"
 941      6E675665 
 941      6E646F72 
 941      00
 942              	.LASF6:
 943 025f 6C6F6E67 		.ascii	"long long unsigned int\000"
 943      206C6F6E 
 943      6720756E 
 943      7369676E 
 943      65642069 
 944              		.ident	"GCC: (GNU Tools for ARM Embedded Processors) 4.7.3 20130312 (release) [ARM/embedded-4_7-br
ARM GAS  /tmp/ccwFXcPn.s 			page 20


DEFINED SYMBOLS
                            *ABS*:00000000 main.c
     /tmp/ccwFXcPn.s:19     .text.startup.main:00000000 $t
     /tmp/ccwFXcPn.s:25     .text.startup.main:00000000 main
     /tmp/ccwFXcPn.s:81     .text.startup.main:0000003c $d
     /tmp/ccwFXcPn.s:91     .bss.transferBuf:00000000 transferBuf
     /tmp/ccwFXcPn.s:87     .bss.transferBuf:00000000 $d
                     .debug_frame:00000010 $d

UNDEFINED SYMBOLS
halInit
chSysInit
myUSBinit
send_data
chThdSleep
