ARM GAS  /tmp/ccTLu8DZ.s 			page 1


   1              		.syntax unified
   2              		.cpu cortex-m4
   3              		.fpu softvfp
   4              		.eabi_attribute 20, 1
   5              		.eabi_attribute 21, 1
   6              		.eabi_attribute 23, 3
   7              		.eabi_attribute 24, 1
   8              		.eabi_attribute 25, 1
   9              		.eabi_attribute 26, 1
  10              		.eabi_attribute 30, 2
  11              		.eabi_attribute 34, 1
  12              		.eabi_attribute 18, 4
  13              		.thumb
  14              		.file	"USB.c"
  15              		.text
  16              	.Ltext0:
  17              		.cfi_sections	.debug_frame
  18              		.section	.text.get_descriptor,"ax",%progbits
  19              		.align	2
  20              		.p2align 4,,15
  21              		.thumb
  22              		.thumb_func
  23              		.type	get_descriptor, %function
  24              	get_descriptor:
  25              	.LFB118:
  26              		.file 1 "USB.c"
  27              		.loc 1 33 0
  28              		.cfi_startproc
  29              		@ args = 0, pretend = 0, frame = 0
  30              		@ frame_needed = 0, uses_anonymous_args = 0
  31              		@ link register save eliminated.
  32              	.LVL0:
  33              		.loc 1 37 0
  34 0000 0229     		cmp	r1, #2
  35 0002 06D0     		beq	.L6
  36 0004 0329     		cmp	r1, #3
  37 0006 06D0     		beq	.L5
  38              		.loc 1 46 0
  39 0008 0748     		ldr	r0, .L9
  40              	.LVL1:
  41 000a 0129     		cmp	r1, #1
  42 000c 18BF     		it	ne
  43 000e 0020     		movne	r0, #0
  44 0010 7047     		bx	lr
  45              	.LVL2:
  46              	.L6:
  47              		.loc 1 41 0
  48 0012 0648     		ldr	r0, .L9+4
  49              	.LVL3:
  50 0014 7047     		bx	lr
  51              	.LVL4:
  52              	.L5:
  53              		.loc 1 43 0
  54 0016 032A     		cmp	r2, #3
  55 0018 03D8     		bhi	.L7
  56              		.loc 1 44 0
  57 001a 0548     		ldr	r0, .L9+8
ARM GAS  /tmp/ccTLu8DZ.s 			page 2


  58              	.LVL5:
  59 001c 00EBC200 		add	r0, r0, r2, lsl #3
  60 0020 7047     		bx	lr
  61              	.LVL6:
  62              	.L7:
  63              		.loc 1 46 0
  64 0022 0020     		movs	r0, #0
  65              	.LVL7:
  66              		.loc 1 47 0
  67 0024 7047     		bx	lr
  68              	.L10:
  69 0026 00BF     		.align	2
  70              	.L9:
  71 0028 00000000 		.word	.LANCHOR0
  72 002c 00000000 		.word	.LANCHOR1
  73 0030 00000000 		.word	.LANCHOR2
  74              		.cfi_endproc
  75              	.LFE118:
  76              		.size	get_descriptor, .-get_descriptor
  77 0034 AFF30080 		.section	.text.usb_event,"ax",%progbits
  77      AFF30080 
  77      AFF30080 
  78              		.align	2
  79              		.p2align 4,,15
  80              		.thumb
  81              		.thumb_func
  82              		.type	usb_event, %function
  83              	usb_event:
  84              	.LFB119:
  85              		.loc 1 99 0
  86              		.cfi_startproc
  87              		@ args = 0, pretend = 0, frame = 0
  88              		@ frame_needed = 0, uses_anonymous_args = 0
  89              	.LVL8:
  90              		.loc 1 101 0
  91 0000 0229     		cmp	r1, #2
  92              		.loc 1 99 0
  93 0002 38B5     		push	{r3, r4, r5, lr}
  94              	.LCFI0:
  95              		.cfi_def_cfa_offset 16
  96              		.cfi_offset 3, -16
  97              		.cfi_offset 4, -12
  98              		.cfi_offset 5, -8
  99              		.cfi_offset 14, -4
 100              		.loc 1 99 0
 101 0004 0C46     		mov	r4, r1
 102 0006 0546     		mov	r5, r0
 103              		.loc 1 101 0
 104 0008 16D1     		bne	.L11
 105              	.LVL9:
 106              	.LBB8:
 107              	.LBB9:
 108              	.LBB10:
 109              		.loc 1 107 0
 110 000a 2023     		movs	r3, #32
 111              	.LVL10:
 112              	@ 107 "USB.c" 1
ARM GAS  /tmp/ccTLu8DZ.s 			page 3


 113 000c 83F31188 		msr     BASEPRI, r3
 114              	@ 0 "" 2
 115              	.LVL11:
 116              		.thumb
 117              	.LBE10:
 118 0010 FFF7FEFF 		bl	dbg_check_lock_from_isr
 119              	.LVL12:
 120              		.loc 1 112 0
 121 0014 2846     		mov	r0, r5
 122 0016 0121     		movs	r1, #1
 123 0018 084A     		ldr	r2, .L14
 124 001a FFF7FEFF 		bl	usbInitEndpointI
 125              	.LVL13:
 126              		.loc 1 113 0
 127 001e 2146     		mov	r1, r4
 128 0020 074A     		ldr	r2, .L14+4
 129 0022 2846     		mov	r0, r5
 130 0024 FFF7FEFF 		bl	usbInitEndpointI
 131              	.LVL14:
 132              		.loc 1 116 0
 133 0028 2846     		mov	r0, r5
 134 002a FFF7FEFF 		bl	sduConfigureHookI
 135              	.LVL15:
 136              		.loc 1 118 0
 137 002e FFF7FEFF 		bl	dbg_check_unlock_from_isr
 138              	.LVL16:
 139              	.LBB11:
 140 0032 0023     		movs	r3, #0
 141              	.LVL17:
 142              	@ 118 "USB.c" 1
 143 0034 83F31188 		msr     BASEPRI, r3
 144              	@ 0 "" 2
 145              	.LVL18:
 146              		.thumb
 147              	.L11:
 148 0038 38BD     		pop	{r3, r4, r5, pc}
 149              	.L15:
 150 003a 00BF     		.align	2
 151              	.L14:
 152 003c 00000000 		.word	.LANCHOR3
 153 0040 00000000 		.word	.LANCHOR4
 154              	.LBE11:
 155              	.LBE9:
 156              	.LBE8:
 157              		.cfi_endproc
 158              	.LFE119:
 159              		.size	usb_event, .-usb_event
 160 0044 AFF30080 		.section	.text.isUsbActive,"ax",%progbits
 160      AFF30080 
 160      AFF30080 
 161              		.align	2
 162              		.p2align 4,,15
 163              		.global	isUsbActive
 164              		.thumb
 165              		.thumb_func
 166              		.type	isUsbActive, %function
 167              	isUsbActive:
ARM GAS  /tmp/ccTLu8DZ.s 			page 4


 168              	.LFB120:
 169              		.loc 1 147 0
 170              		.cfi_startproc
 171              		@ args = 0, pretend = 0, frame = 0
 172              		@ frame_needed = 0, uses_anonymous_args = 0
 173              		@ link register save eliminated.
 174              		.loc 1 148 0
 175 0000 40F20003 		movw	r3, #:lower16:.LANCHOR5
 176 0004 C0F20003 		movt	r3, #:upper16:.LANCHOR5
 177 0008 D3F85802 		ldr	r0, [r3, #600]
 178 000c 0168     		ldr	r1, [r0, #0]
 179 000e 0A78     		ldrb	r2, [r1, #0]	@ zero_extendqisi2
 180              		.loc 1 149 0
 181 0010 131F     		subs	r3, r2, #4
 182 0012 5842     		rsbs	r0, r3, #0
 183 0014 5841     		adcs	r0, r0, r3
 184 0016 7047     		bx	lr
 185              		.cfi_endproc
 186              	.LFE120:
 187              		.size	isUsbActive, .-isUsbActive
 188 0018 AFF30080 		.section	.text.myUSBinit,"ax",%progbits
 188      AFF30080 
 189              		.align	2
 190              		.p2align 4,,15
 191              		.global	myUSBinit
 192              		.thumb
 193              		.thumb_func
 194              		.type	myUSBinit, %function
 195              	myUSBinit:
 196              	.LFB121:
 197              		.loc 1 151 0
 198              		.cfi_startproc
 199              		@ args = 0, pretend = 0, frame = 0
 200              		@ frame_needed = 0, uses_anonymous_args = 0
 201 0000 38B5     		push	{r3, r4, r5, lr}
 202              	.LCFI1:
 203              		.cfi_def_cfa_offset 16
 204              		.cfi_offset 3, -16
 205              		.cfi_offset 4, -12
 206              		.cfi_offset 5, -8
 207              		.cfi_offset 14, -4
 208              		.loc 1 161 0
 209 0002 40F20005 		movw	r5, #:lower16:.LANCHOR5
 210 0006 C0F20005 		movt	r5, #:upper16:.LANCHOR5
 211              		.loc 1 156 0
 212 000a FFF7FEFF 		bl	shellInit
 213              	.LVL19:
 214              		.loc 1 169 0
 215 000e 40F20004 		movw	r4, #:lower16:USBD1
 216              		.loc 1 161 0
 217 0012 2846     		mov	r0, r5
 218 0014 FFF7FEFF 		bl	sduObjectInit
 219              	.LVL20:
 220              		.loc 1 169 0
 221 0018 C0F20004 		movt	r4, #:upper16:USBD1
 222              		.loc 1 162 0
 223 001c 40F20001 		movw	r1, #:lower16:.LANCHOR6
ARM GAS  /tmp/ccTLu8DZ.s 			page 5


 224 0020 C0F20001 		movt	r1, #:upper16:.LANCHOR6
 225 0024 2846     		mov	r0, r5
 226 0026 FFF7FEFF 		bl	sduStart
 227              	.LVL21:
 228              		.loc 1 169 0
 229 002a E36B     		ldr	r3, [r4, #60]
 230 002c 9A6B     		ldr	r2, [r3, #56]
 231 002e 22F40021 		bic	r1, r2, #524288
 232 0032 9963     		str	r1, [r3, #56]
 233              		.loc 1 170 0
 234 0034 4FF47A70 		mov	r0, #1000
 235 0038 FFF7FEFF 		bl	chThdSleep
 236              	.LVL22:
 237              		.loc 1 171 0
 238 003c 40F20001 		movw	r1, #:lower16:.LANCHOR7
 239 0040 2046     		mov	r0, r4
 240 0042 C0F20001 		movt	r1, #:upper16:.LANCHOR7
 241 0046 FFF7FEFF 		bl	usbStart
 242              	.LVL23:
 243              		.loc 1 172 0
 244 004a E06B     		ldr	r0, [r4, #60]
 245 004c 836B     		ldr	r3, [r0, #56]
 246 004e 43F40022 		orr	r2, r3, #524288
 247 0052 8263     		str	r2, [r0, #56]
 248 0054 38BD     		pop	{r3, r4, r5, pc}
 249              		.cfi_endproc
 250              	.LFE121:
 251              		.size	myUSBinit, .-myUSBinit
 252 0056 00BFAFF3 		.section	.text.send_data,"ax",%progbits
 252      0080AFF3 
 252      0080
 253              		.align	2
 254              		.p2align 4,,15
 255              		.global	send_data
 256              		.thumb
 257              		.thumb_func
 258              		.type	send_data, %function
 259              	send_data:
 260              	.LFB122:
 261              		.loc 1 176 0
 262              		.cfi_startproc
 263              		@ args = 0, pretend = 0, frame = 0
 264              		@ frame_needed = 0, uses_anonymous_args = 0
 265              	.LVL24:
 266 0000 08B5     		push	{r3, lr}
 267              	.LCFI2:
 268              		.cfi_def_cfa_offset 8
 269              		.cfi_offset 3, -8
 270              		.cfi_offset 14, -4
 271              		.loc 1 177 0
 272 0002 40F20003 		movw	r3, #:lower16:.LANCHOR5
 273 0006 C0F20003 		movt	r3, #:upper16:.LANCHOR5
 274              		.loc 1 176 0
 275 000a 0146     		mov	r1, r0
 276              		.loc 1 177 0
 277 000c 1A68     		ldr	r2, [r3, #0]
 278 000e 1846     		mov	r0, r3
ARM GAS  /tmp/ccTLu8DZ.s 			page 6


 279              	.LVL25:
 280 0010 1368     		ldr	r3, [r2, #0]
 281 0012 0322     		movs	r2, #3
 282 0014 9847     		blx	r3
 283              	.LVL26:
 284 0016 08BD     		pop	{r3, pc}
 285              		.cfi_endproc
 286              	.LFE122:
 287              		.size	send_data, .-send_data
 288 0018 AFF30080 		.section	.text.receive_data,"ax",%progbits
 288      AFF30080 
 289              		.align	2
 290              		.p2align 4,,15
 291              		.global	receive_data
 292              		.thumb
 293              		.thumb_func
 294              		.type	receive_data, %function
 295              	receive_data:
 296              	.LFB123:
 297              		.loc 1 180 0
 298              		.cfi_startproc
 299              		@ args = 0, pretend = 0, frame = 0
 300              		@ frame_needed = 0, uses_anonymous_args = 0
 301              		@ link register save eliminated.
 302              		.loc 1 183 0
 303 0000 0020     		movs	r0, #0
 304 0002 7047     		bx	lr
 305              		.cfi_endproc
 306              	.LFE123:
 307              		.size	receive_data, .-receive_data
 308              		.global	serusbcfg
 309              		.global	usbcfg
 310              		.global	SDU1
 311 0004 AFF30080 		.section	.rodata.ep1config,"a",%progbits
 311      AFF30080 
 311      AFF30080 
 312              		.align	2
 313              		.set	.LANCHOR3,. + 0
 314              		.type	ep1config, %object
 315              		.size	ep1config, 36
 316              	ep1config:
 317 0000 02000000 		.word	2
 318 0004 00000000 		.word	0
 319 0008 00000000 		.word	sduDataTransmitted
 320 000c 00000000 		.word	sduDataReceived
 321 0010 4000     		.short	64
 322 0012 4000     		.short	64
 323 0014 00000000 		.word	ep1instate
 324 0018 00000000 		.word	ep1outstate
 325 001c 0200     		.short	2
 326 001e 0000     		.space	2
 327 0020 00000000 		.word	0
 328              		.section	.rodata.vcom_configuration_descriptor_data,"a",%progbits
 329              		.align	2
 330              		.type	vcom_configuration_descriptor_data, %object
 331              		.size	vcom_configuration_descriptor_data, 67
 332              	vcom_configuration_descriptor_data:
ARM GAS  /tmp/ccTLu8DZ.s 			page 7


 333 0000 09       		.byte	9
 334 0001 02       		.byte	2
 335 0002 43       		.byte	67
 336 0003 00       		.byte	0
 337 0004 02       		.byte	2
 338 0005 01       		.byte	1
 339 0006 00       		.byte	0
 340 0007 C0       		.byte	-64
 341 0008 32       		.byte	50
 342 0009 09       		.byte	9
 343 000a 04       		.byte	4
 344 000b 00       		.byte	0
 345 000c 00       		.byte	0
 346 000d 01       		.byte	1
 347 000e 02       		.byte	2
 348 000f 02       		.byte	2
 349 0010 01       		.byte	1
 350 0011 00       		.byte	0
 351 0012 05       		.byte	5
 352 0013 24       		.byte	36
 353 0014 00       		.byte	0
 354 0015 10       		.byte	16
 355 0016 01       		.byte	1
 356 0017 05       		.byte	5
 357 0018 24       		.byte	36
 358 0019 01       		.byte	1
 359 001a 00       		.byte	0
 360 001b 01       		.byte	1
 361 001c 04       		.byte	4
 362 001d 24       		.byte	36
 363 001e 02       		.byte	2
 364 001f 02       		.byte	2
 365 0020 05       		.byte	5
 366 0021 24       		.byte	36
 367 0022 06       		.byte	6
 368 0023 00       		.byte	0
 369 0024 01       		.byte	1
 370 0025 07       		.byte	7
 371 0026 05       		.byte	5
 372 0027 82       		.byte	-126
 373 0028 03       		.byte	3
 374 0029 08       		.byte	8
 375 002a 00       		.byte	0
 376 002b FF       		.byte	-1
 377 002c 09       		.byte	9
 378 002d 04       		.byte	4
 379 002e 01       		.byte	1
 380 002f 00       		.byte	0
 381 0030 02       		.byte	2
 382 0031 0A       		.byte	10
 383 0032 00       		.byte	0
 384 0033 00       		.byte	0
 385 0034 00       		.byte	0
 386 0035 07       		.byte	7
 387 0036 05       		.byte	5
 388 0037 01       		.byte	1
 389 0038 02       		.byte	2
ARM GAS  /tmp/ccTLu8DZ.s 			page 8


 390 0039 40       		.byte	64
 391 003a 00       		.byte	0
 392 003b 00       		.byte	0
 393 003c 07       		.byte	7
 394 003d 05       		.byte	5
 395 003e 81       		.byte	-127
 396 003f 02       		.byte	2
 397 0040 40       		.byte	64
 398 0041 00       		.byte	0
 399 0042 00       		.byte	0
 400 0043 00       		.section	.bss.SDU1,"aw",%nobits
 401              		.align	2
 402              		.set	.LANCHOR5,. + 0
 403              		.type	SDU1, %object
 404              		.size	SDU1, 604
 405              	SDU1:
 406 0000 00000000 		.space	604
 406      00000000 
 406      00000000 
 406      00000000 
 406      00000000 
 407              		.section	.bss.ep1instate,"aw",%nobits
 408              		.align	2
 409              		.type	ep1instate, %object
 410              		.size	ep1instate, 16
 411              	ep1instate:
 412 0000 00000000 		.space	16
 412      00000000 
 412      00000000 
 412      00000000 
 413              		.section	.rodata.vcom_configuration_descriptor,"a",%progbits
 414              		.align	2
 415              		.set	.LANCHOR1,. + 0
 416              		.type	vcom_configuration_descriptor, %object
 417              		.size	vcom_configuration_descriptor, 8
 418              	vcom_configuration_descriptor:
 419 0000 43000000 		.word	67
 420 0004 00000000 		.word	vcom_configuration_descriptor_data
 421              		.section	.rodata.ep2config,"a",%progbits
 422              		.align	2
 423              		.set	.LANCHOR4,. + 0
 424              		.type	ep2config, %object
 425              		.size	ep2config, 36
 426              	ep2config:
 427 0000 03000000 		.word	3
 428 0004 00000000 		.word	0
 429 0008 00000000 		.word	sduInterruptTransmitted
 430 000c 00000000 		.word	0
 431 0010 1000     		.short	16
 432 0012 0000     		.short	0
 433 0014 00000000 		.word	ep2instate
 434 0018 00000000 		.word	0
 435 001c 0100     		.short	1
 436 001e 0000     		.space	2
 437 0020 00000000 		.word	0
 438              		.section	.bss.ep2instate,"aw",%nobits
 439              		.align	2
ARM GAS  /tmp/ccTLu8DZ.s 			page 9


 440              		.type	ep2instate, %object
 441              		.size	ep2instate, 16
 442              	ep2instate:
 443 0000 00000000 		.space	16
 443      00000000 
 443      00000000 
 443      00000000 
 444              		.section	.rodata.usbcfg,"a",%progbits
 445              		.align	2
 446              		.set	.LANCHOR7,. + 0
 447              		.type	usbcfg, %object
 448              		.size	usbcfg, 16
 449              	usbcfg:
 450 0000 00000000 		.word	usb_event
 451 0004 00000000 		.word	get_descriptor
 452 0008 00000000 		.word	sduRequestsHook
 453 000c 00000000 		.word	0
 454              		.section	.rodata.vcom_device_descriptor_data,"a",%progbits
 455              		.align	2
 456              		.type	vcom_device_descriptor_data, %object
 457              		.size	vcom_device_descriptor_data, 18
 458              	vcom_device_descriptor_data:
 459 0000 12       		.byte	18
 460 0001 01       		.byte	1
 461 0002 10       		.byte	16
 462 0003 01       		.byte	1
 463 0004 02       		.byte	2
 464 0005 00       		.byte	0
 465 0006 00       		.byte	0
 466 0007 40       		.byte	64
 467 0008 83       		.byte	-125
 468 0009 04       		.byte	4
 469 000a 40       		.byte	64
 470 000b 57       		.byte	87
 471 000c 00       		.byte	0
 472 000d 02       		.byte	2
 473 000e 01       		.byte	1
 474 000f 02       		.byte	2
 475 0010 03       		.byte	3
 476 0011 01       		.byte	1
 477 0012 0000     		.section	.bss.ep1outstate,"aw",%nobits
 478              		.align	2
 479              		.type	ep1outstate, %object
 480              		.size	ep1outstate, 16
 481              	ep1outstate:
 482 0000 00000000 		.space	16
 482      00000000 
 482      00000000 
 482      00000000 
 483              		.section	.rodata.vcom_string0,"a",%progbits
 484              		.align	2
 485              		.type	vcom_string0, %object
 486              		.size	vcom_string0, 4
 487              	vcom_string0:
 488 0000 04       		.byte	4
 489 0001 03       		.byte	3
 490 0002 09       		.byte	9
ARM GAS  /tmp/ccTLu8DZ.s 			page 10


 491 0003 04       		.byte	4
 492              		.section	.rodata.vcom_string1,"a",%progbits
 493              		.align	2
 494              		.type	vcom_string1, %object
 495              		.size	vcom_string1, 38
 496              	vcom_string1:
 497 0000 26       		.byte	38
 498 0001 03       		.byte	3
 499 0002 53       		.byte	83
 500 0003 00       		.byte	0
 501 0004 54       		.byte	84
 502 0005 00       		.byte	0
 503 0006 4D       		.byte	77
 504 0007 00       		.byte	0
 505 0008 69       		.byte	105
 506 0009 00       		.byte	0
 507 000a 63       		.byte	99
 508 000b 00       		.byte	0
 509 000c 72       		.byte	114
 510 000d 00       		.byte	0
 511 000e 6F       		.byte	111
 512 000f 00       		.byte	0
 513 0010 65       		.byte	101
 514 0011 00       		.byte	0
 515 0012 6C       		.byte	108
 516 0013 00       		.byte	0
 517 0014 65       		.byte	101
 518 0015 00       		.byte	0
 519 0016 63       		.byte	99
 520 0017 00       		.byte	0
 521 0018 74       		.byte	116
 522 0019 00       		.byte	0
 523 001a 72       		.byte	114
 524 001b 00       		.byte	0
 525 001c 6F       		.byte	111
 526 001d 00       		.byte	0
 527 001e 6E       		.byte	110
 528 001f 00       		.byte	0
 529 0020 69       		.byte	105
 530 0021 00       		.byte	0
 531 0022 63       		.byte	99
 532 0023 00       		.byte	0
 533 0024 73       		.byte	115
 534 0025 00       		.byte	0
 535 0026 0000     		.section	.rodata.vcom_string2,"a",%progbits
 536              		.align	2
 537              		.type	vcom_string2, %object
 538              		.size	vcom_string2, 56
 539              	vcom_string2:
 540 0000 38       		.byte	56
 541 0001 03       		.byte	3
 542 0002 43       		.byte	67
 543 0003 00       		.byte	0
 544 0004 68       		.byte	104
 545 0005 00       		.byte	0
 546 0006 69       		.byte	105
 547 0007 00       		.byte	0
ARM GAS  /tmp/ccTLu8DZ.s 			page 11


 548 0008 62       		.byte	98
 549 0009 00       		.byte	0
 550 000a 69       		.byte	105
 551 000b 00       		.byte	0
 552 000c 4F       		.byte	79
 553 000d 00       		.byte	0
 554 000e 53       		.byte	83
 555 000f 00       		.byte	0
 556 0010 2F       		.byte	47
 557 0011 00       		.byte	0
 558 0012 52       		.byte	82
 559 0013 00       		.byte	0
 560 0014 54       		.byte	84
 561 0015 00       		.byte	0
 562 0016 20       		.byte	32
 563 0017 00       		.byte	0
 564 0018 56       		.byte	86
 565 0019 00       		.byte	0
 566 001a 69       		.byte	105
 567 001b 00       		.byte	0
 568 001c 72       		.byte	114
 569 001d 00       		.byte	0
 570 001e 74       		.byte	116
 571 001f 00       		.byte	0
 572 0020 75       		.byte	117
 573 0021 00       		.byte	0
 574 0022 61       		.byte	97
 575 0023 00       		.byte	0
 576 0024 6C       		.byte	108
 577 0025 00       		.byte	0
 578 0026 20       		.byte	32
 579 0027 00       		.byte	0
 580 0028 43       		.byte	67
 581 0029 00       		.byte	0
 582 002a 4F       		.byte	79
 583 002b 00       		.byte	0
 584 002c 4D       		.byte	77
 585 002d 00       		.byte	0
 586 002e 20       		.byte	32
 587 002f 00       		.byte	0
 588 0030 50       		.byte	80
 589 0031 00       		.byte	0
 590 0032 6F       		.byte	111
 591 0033 00       		.byte	0
 592 0034 72       		.byte	114
 593 0035 00       		.byte	0
 594 0036 74       		.byte	116
 595 0037 00       		.byte	0
 596              		.section	.rodata.vcom_string3,"a",%progbits
 597              		.align	2
 598              		.type	vcom_string3, %object
 599              		.size	vcom_string3, 8
 600              	vcom_string3:
 601 0000 08       		.byte	8
 602 0001 03       		.byte	3
 603 0002 32       		.byte	50
 604 0003 00       		.byte	0
ARM GAS  /tmp/ccTLu8DZ.s 			page 12


 605 0004 35       		.byte	53
 606 0005 00       		.byte	0
 607 0006 30       		.byte	48
 608 0007 00       		.byte	0
 609              		.section	.rodata.vcom_strings,"a",%progbits
 610              		.align	2
 611              		.set	.LANCHOR2,. + 0
 612              		.type	vcom_strings, %object
 613              		.size	vcom_strings, 32
 614              	vcom_strings:
 615 0000 04000000 		.word	4
 616 0004 00000000 		.word	vcom_string0
 617 0008 26000000 		.word	38
 618 000c 00000000 		.word	vcom_string1
 619 0010 38000000 		.word	56
 620 0014 00000000 		.word	vcom_string2
 621 0018 08000000 		.word	8
 622 001c 00000000 		.word	vcom_string3
 623              		.section	.rodata.serusbcfg,"a",%progbits
 624              		.align	2
 625              		.set	.LANCHOR6,. + 0
 626              		.type	serusbcfg, %object
 627              		.size	serusbcfg, 4
 628              	serusbcfg:
 629 0000 00000000 		.word	USBD1
 630              		.section	.rodata.vcom_device_descriptor,"a",%progbits
 631              		.align	2
 632              		.set	.LANCHOR0,. + 0
 633              		.type	vcom_device_descriptor, %object
 634              		.size	vcom_device_descriptor, 8
 635              	vcom_device_descriptor:
 636 0000 12000000 		.word	18
 637 0004 00000000 		.word	vcom_device_descriptor_data
 638              		.text
 639              	.Letext0:
 640              		.file 2 "/opt/gcc-arm-none-eabi-4_7-2013q1/bin/../lib/gcc/arm-none-eabi/4.7.3/include/stddef.h"
 641              		.file 3 "/opt/gcc-arm-none-eabi-4_7-2013q1/bin/../lib/gcc/arm-none-eabi/4.7.3/../../../../arm-none
 642              		.file 4 "/home/gokul/ChibiOS_2.5.0/os/ports/GCC/ARMCMx/chtypes.h"
 643              		.file 5 "/home/gokul/ChibiOS_2.5.0/os/kernel/include/chlists.h"
 644              		.file 6 "/home/gokul/ChibiOS_2.5.0/os/kernel/include/chthreads.h"
 645              		.file 7 "/home/gokul/ChibiOS_2.5.0/os/ports/GCC/ARMCMx/chcore_v7m.h"
 646              		.file 8 "/home/gokul/ChibiOS_2.5.0/os/kernel/include/chmtx.h"
 647              		.file 9 "/home/gokul/ChibiOS_2.5.0/os/kernel/include/chevents.h"
 648              		.file 10 "/home/gokul/ChibiOS_2.5.0/os/kernel/include/chqueues.h"
 649              		.file 11 "/home/gokul/ChibiOS_2.5.0/os/hal/include/io_channel.h"
 650              		.file 12 "/home/gokul/ChibiOS_2.5.0/os/hal/include/usb.h"
 651              		.file 13 "/home/gokul/ChibiOS_2.5.0/os/hal/platforms/STM32/OTGv1/usb_lld.h"
 652              		.file 14 "/home/gokul/ChibiOS_2.5.0/os/hal/platforms/STM32/OTGv1/stm32_otg.h"
 653              		.file 15 "/home/gokul/ChibiOS_2.5.0/os/hal/include/serial_usb.h"
 654              		.file 16 "usbdescriptor.h"
 655              		.file 17 "/home/gokul/ChibiOS_2.5.0/os/ports/common/ARMCMx/CMSIS/include/core_cm4.h"
 656              		.file 18 "/home/gokul/ChibiOS_2.5.0/os/kernel/include/chdebug.h"
 657              		.file 19 "/home/gokul/ChibiOS_2.5.0/os/various/shell.h"